(lp1
(lp2
S'fk_clavicle_r_anim'
p3
a(lp4
VtranslateX
p5
aVtranslateY
p6
aVtranslateZ
p7
aVrotateX
p8
aVrotateY
p9
aVrotateZ
p10
aaF0
aF0
aF0
aF0
aF0
aF0
aa(lp11
S'fk_clavicle_l_anim'
p12
a(lp13
VtranslateX
p14
aVtranslateY
p15
aVtranslateZ
p16
aVrotateX
p17
aVrotateY
p18
aVrotateZ
p19
aaF0
aF0
aF0
aF0
aF0
aF0
aa(lp20
S'head_fk_anim'
p21
a(lp22
VtranslateX
p23
aVtranslateY
p24
aVtranslateZ
p25
aVrotateX
p26
aVrotateY
p27
aVrotateZ
p28
aVscaleX
p29
aVscaleY
p30
aVscaleZ
p31
aVfkOrientation
p32
aaF0
aF0
aF0
aF0
aF0
aF0
aF1
aF1
aF1
aI0
aa(lp33
S'neck_01_fk_anim'
p34
a(lp35
VtranslateX
p36
aVtranslateY
p37
aVtranslateZ
p38
aVrotateX
p39
aVrotateY
p40
aVrotateZ
p41
aVscaleX
p42
aVscaleY
p43
aVscaleZ
p44
aVfkOrientation
p45
aaF0
aF0
aF-5.5511151231257827e-17
aF0
aF-0
aF0
aF1
aF1
aF1
aI2
aa(lp46
S'neck_02_fk_anim'
p47
a(lp48
VtranslateX
p49
aVtranslateY
p50
aVtranslateZ
p51
aVrotateX
p52
aVrotateY
p53
aVrotateZ
p54
aVscaleX
p55
aVscaleY
p56
aVscaleZ
p57
aaF0
aF0
aF0
aF0
aF0
aF0
aF1
aF1
aF1
aa(lp58
S'spine_01_anim'
p59
a(lp60
Vlength
p61
aVtranslateY
p62
aVtranslateZ
p63
aVrotateX
p64
aVrotateY
p65
aVrotateZ
p66
aaF0
aF0
aF0
aF0
aF0
aF0
aa(lp67
S'spine_02_anim'
p68
a(lp69
Vlength
p70
aVtranslateY
p71
aVtranslateZ
p72
aVrotateX
p73
aVrotateY
p74
aVrotateZ
p75
aaF0
aF0
aF0
aF0
aF0
aF0
aa(lp76
S'spine_03_anim'
p77
a(lp78
Vlength
p79
aVtranslateY
p80
aVtranslateZ
p81
aVrotateX
p82
aVrotateY
p83
aVrotateZ
p84
aaF0
aF0
aF0
aF0
aF0
aF0
aa(lp85
S'mid_ik_anim'
p86
a(lp87
VtranslateX
p88
aVtranslateY
p89
aVtranslateZ
p90
aVrotateX
p91
aVrotateY
p92
aVrotateZ
p93
aaF0
aF0
aF0
aF0
aF0
aF0
aa(lp94
S'chest_ik_anim'
p95
a(lp96
VtranslateX
p97
aVtranslateY
p98
aVtranslateZ
p99
aVrotateX
p100
aVrotateY
p101
aVrotateZ
p102
aVstretch
p103
aVsquash
p104
aVtwist_amount
p105
aVautoSpine
p106
aVrotationInfluence
p107
aaF5.6843418860808015e-14
aF7.1054273576010019e-15
aF4.4408920985006262e-16
aF0
aF-0
aF0
aF0
aF0
aF1
aF0
aF0.25
aa(lp108
S'body_anim'
p109
a(lp110
VtranslateX
p111
aVtranslateY
p112
aVtranslateZ
p113
aVrotateX
p114
aVrotateY
p115
aVrotateZ
p116
aaF1.646751633758743e-14
aF0
aF0
aF0
aF0
aF0
aa(lp117
S'hip_anim'
p118
a(lp119
VtranslateX
p120
aVtranslateY
p121
aVtranslateZ
p122
aVrotateX
p123
aVrotateY
p124
aVrotateZ
p125
aVlCalfTwistCtrlVis
p126
aVrCalfTwistCtrlVis
p127
aVautoHips
p128
aaF0
aF0
aF5.5511151231257827e-17
aF3.7272125173400562e-17
aF-2.5444437451708134e-14
aF4.9696166897867437e-17
aI00
aI00
aF0
aa(lp129
S'clavicle_l_anim'
p130
a(lp131
VtranslateX
p132
aVtranslateY
p133
aVtranslateZ
p134
aVautoShoulders
p135
aaF0
aF0
aF0
aF0
aa(lp136
S'clavicle_r_anim'
p137
a(lp138
VtranslateX
p139
aVtranslateY
p140
aVtranslateZ
p141
aVautoShoulders
p142
aaF0
aF0
aF0
aF0
aa(lp143
S'fk_arm_l_anim'
p144
a(lp145
VtranslateX
p146
aVtranslateY
p147
aVtranslateZ
p148
aVrotateX
p149
aVrotateY
p150
aVrotateZ
p151
aaF0
aF0
aF0
aF0
aF0
aF0
aa(lp152
S'fk_arm_r_anim'
p153
a(lp154
VtranslateX
p155
aVtranslateY
p156
aVtranslateZ
p157
aVrotateX
p158
aVrotateY
p159
aVrotateZ
p160
aaF0
aF0
aF0
aF0
aF0
aF0
aa(lp161
S'fk_elbow_l_anim'
p162
a(lp163
VtranslateX
p164
aVtranslateY
p165
aVtranslateZ
p166
aVrotateX
p167
aVrotateY
p168
aVrotateZ
p169
aaF0
aF0
aF0
aF0
aF0
aF0
aa(lp170
S'fk_elbow_r_anim'
p171
a(lp172
VtranslateX
p173
aVtranslateY
p174
aVtranslateZ
p175
aVrotateX
p176
aVrotateY
p177
aVrotateZ
p178
aaF0
aF0
aF0
aF0
aF0
aF0
aa(lp179
S'fk_wrist_l_anim'
p180
a(lp181
VtranslateX
p182
aVtranslateY
p183
aVtranslateZ
p184
aVrotateX
p185
aVrotateY
p186
aVrotateZ
p187
aaF0
aF0
aF0
aF0
aF0
aF0
aa(lp188
S'fk_wrist_r_anim'
p189
a(lp190
VtranslateX
p191
aVtranslateY
p192
aVtranslateZ
p193
aVrotateX
p194
aVrotateY
p195
aVrotateZ
p196
aaF0
aF0
aF0
aF0
aF0
aF0
aa(lp197
S'ik_elbow_l_anim'
p198
a(lp199
VtranslateX
p200
aVtranslateY
p201
aVtranslateZ
p202
aaF-3.5527136788005009e-15
aF-12.724144955997641
aF0
aa(lp203
S'ik_elbow_r_anim'
p204
a(lp205
VtranslateX
p206
aVtranslateY
p207
aVtranslateZ
p208
aaF3.5527136788005009e-15
aF-12.724144955997641
aF0
aa(lp209
S'ik_wrist_l_anim'
p210
a(lp211
VtranslateX
p212
aVtranslateY
p213
aVtranslateZ
p214
aVrotateX
p215
aVrotateY
p216
aVrotateZ
p217
aVstretch
p218
aVsquash
p219
aVstretchBias
p220
aVside
p221
aVmid_bend
p222
aVmid_swivel
p223
aVtip_pivot
p224
aVtip_swivel
p225
aaF0
aF0
aF0
aF0
aF-0
aF0
aF0
aF0
aF0
aF0
aF0
aF0
aF0
aF0
aa(lp226
S'ik_wrist_r_anim'
p227
a(lp228
VtranslateX
p229
aVtranslateY
p230
aVtranslateZ
p231
aVrotateX
p232
aVrotateY
p233
aVrotateZ
p234
aVstretch
p235
aVsquash
p236
aVstretchBias
p237
aVside
p238
aVmid_bend
p239
aVmid_swivel
p240
aVtip_pivot
p241
aVtip_swivel
p242
aaF0
aF0
aF0
aF0
aF-0
aF0
aF0
aF0
aF0
aF0
aF0
aF0
aF0
aF0
aa(lp243
S'fk_thigh_l_anim'
p244
a(lp245
VrotateX
p246
aVrotateY
p247
aVrotateZ
p248
aaF-2.8207063870240999e-16
aF1.5530052155583578e-18
aF2.4848083448933725e-17
aa(lp249
S'fk_thigh_r_anim'
p250
a(lp251
VrotateX
p252
aVrotateY
p253
aVrotateZ
p254
aaF-1.2020017711356759e-16
aF-0
aF2.4848083448933719e-17
aa(lp255
S'fk_calf_l_anim'
p256
a(lp257
VrotateX
p258
aVrotateY
p259
aVrotateZ
p260
aaF0
aF0
aF0
aa(lp261
S'fk_calf_r_anim'
p262
a(lp263
VrotateX
p264
aVrotateY
p265
aVrotateZ
p266
aaF0
aF0
aF0
aa(lp267
S'fk_foot_l_anim'
p268
a(lp269
VrotateX
p270
aVrotateY
p271
aVrotateZ
p272
aaF-5.2244066079642881e-17
aF-0
aF0
aa(lp273
S'fk_foot_r_anim'
p274
a(lp275
VrotateX
p276
aVrotateY
p277
aVrotateZ
p278
aaF2.3590877195526246e-15
aF6.2120208622334312e-18
aF0
aa(lp279
S'ik_foot_anim_l'
p280
a(lp281
VtranslateX
p282
aVtranslateY
p283
aVtranslateZ
p284
aVrotateX
p285
aVrotateY
p286
aVrotateZ
p287
aVknee_twist
p288
aVstretch
p289
aVsquash
p290
aVtoeCtrlVis
p291
aVstretchBias
p292
aaF0
aF0
aF0
aF0
aF0
aF0
aF0
aF0
aF0
aI00
aF0
aa(lp293
S'ik_foot_anim_r'
p294
a(lp295
VtranslateX
p296
aVtranslateY
p297
aVtranslateZ
p298
aVrotateX
p299
aVrotateY
p300
aVrotateZ
p301
aVknee_twist
p302
aVstretch
p303
aVsquash
p304
aVtoeCtrlVis
p305
aVstretchBias
p306
aaF-16.184373271861698
aF-10.91101800798678
aF15.503716539842859
aF0
aF-0
aF-5.3446731537632637
aF4.7999999999999972
aF0
aF0
aI00
aF0
aa(lp307
S'heel_ctrl_l'
p308
a(lp309
VrotateX
p310
aVrotateY
p311
aVrotateZ
p312
aVheelPivot
p313
aVballPivot
p314
aaF6.9461503564322529e-31
aF-0
aF0
aF0
aF0
aa(lp315
S'heel_ctrl_r'
p316
a(lp317
VrotateX
p318
aVrotateY
p319
aVrotateZ
p320
aVheelPivot
p321
aVballPivot
p322
aaF-6.9461503564322529e-31
aF-0
aF0
aF0
aF0
aa(lp323
S'toe_wiggle_ctrl_l'
p324
a(lp325
VrotateX
p326
aVrotateY
p327
aVrotateZ
p328
aaF-3.0749503268055475e-15
aF-8.8478346986333616e-15
aF6.3362612794780998e-15
aa(lp329
S'toe_wiggle_ctrl_r'
p330
a(lp331
VrotateX
p332
aVrotateY
p333
aVrotateZ
p334
aaF7.7836621403784887e-15
aF-8.3119751021462483e-16
aF-3.1805546814635168e-15
aa(lp335
S'toe_tip_ctrl_l'
p336
a(lp337
VrotateX
p338
aVrotateY
p339
aVrotateZ
p340
aaF0
aF-5.6737832265099948e-15
aF3.2054027649124505e-15
aa(lp341
S'toe_tip_ctrl_r'
p342
a(lp343
VrotateX
p344
aVrotateY
p345
aVrotateZ
p346
aaF0
aF8.779017155018932e-15
aF0
aa(lp347
S'master_anim'
p348
a(lp349
VtranslateX
p350
aVtranslateY
p351
aVtranslateZ
p352
aVrotateX
p353
aVrotateY
p354
aVrotateZ
p355
aaF0
aF0
aF0
aF0
aF0
aF0
aa(lp356
S'offset_anim'
p357
a(lp358
VtranslateX
p359
aVtranslateY
p360
aVtranslateZ
p361
aVrotateX
p362
aVrotateY
p363
aVrotateZ
p364
aaF0
aF0
aF0
aF0
aF0
aF0
aa(lp365
S'root_anim'
p366
a(lp367
VtranslateX
p368
aVtranslateY
p369
aVtranslateZ
p370
aVrotateX
p371
aVrotateY
p372
aVrotateZ
p373
aaF0
aF0
aF0
aF0
aF0
aF0
aa(lp374
S'upperarm_l_twist_anim'
p375
a(lp376
VtranslateX
p377
aVtranslateY
p378
aVtranslateZ
p379
aVrotateX
p380
aVrotateY
p381
aVrotateZ
p382
aVscaleX
p383
aVscaleY
p384
aVscaleZ
p385
aaF0
aF7.1054273576010019e-15
aF0
aF-2.3854160110976376e-15
aF-3.1805546814635168e-15
aF-1.5902773407317584e-15
aF1
aF1
aF1
aa(lp386
S'upperarm_r_twist_anim'
p387
a(lp388
VtranslateX
p389
aVtranslateY
p390
aVtranslateZ
p391
aVrotateX
p392
aVrotateY
p393
aVrotateZ
p394
aVscaleX
p395
aVscaleY
p396
aVscaleZ
p397
aaF-1.4210854715202004e-14
aF0
aF1.4210854715202004e-14
aF5.5659706925611543e-15
aF3.1805546814635176e-15
aF0
aF0.99999999999999989
aF1
aF0.99999999999999989
aa(lp398
S'lowerarm_l_twist_anim'
p399
a(lp400
VtranslateX
p401
aVtranslateY
p402
aVtranslateZ
p403
aVrotateX
p404
aVrotateY
p405
aVrotateZ
p406
aaF0
aF0
aF0
aF0
aF0
aF0
aa(lp407
S'lowerarm_r_twist_anim'
p408
a(lp409
VtranslateX
p410
aVtranslateY
p411
aVtranslateZ
p412
aVrotateX
p413
aVrotateY
p414
aVrotateZ
p415
aaF0
aF0
aF0
aF0
aF0
aF0
aa(lp416
S'l_thigh_twist_01_anim'
p417
a(lp418
VtranslateX
p419
aVtranslateY
p420
aVtranslateZ
p421
aVrotateX
p422
aVrotateY
p423
aVrotateZ
p424
aVscaleX
p425
aVscaleY
p426
aVscaleZ
p427
aaF-2.8421709430404007e-14
aF8.8817841970012523e-16
aF-1.7763568394002505e-15
aF-1.7635021085735993e-12
aF-1.2714453699776276e-14
aF4.7211358552974075e-16
aF1
aF1
aF0.99999999999999978
aa(lp428
S'r_thigh_twist_01_anim'
p429
a(lp430
VtranslateX
p431
aVtranslateY
p432
aVtranslateZ
p433
aVrotateX
p434
aVrotateY
p435
aVrotateZ
p436
aVscaleX
p437
aVscaleY
p438
aVscaleZ
p439
aaF2.8421709430404007e-14
aF8.8817841970012523e-16
aF0
aF1.5655078539061551e-12
aF3.1060104311167148e-18
aF7.454425034680115e-17
aF1.0000000000000002
aF1.0000000000000004
aF1.0000000000000002
aa(lp440
S'pinky_metacarpal_ctrl_l'
p441
a(lp442
VrotateX
p443
aVrotateY
p444
aVrotateZ
p445
aaF0
aF0
aF0
aa(lp446
S'pinky_metacarpal_ctrl_r'
p447
a(lp448
VrotateX
p449
aVrotateY
p450
aVrotateZ
p451
aaF0
aF0
aF0
aa(lp452
S'pinky_finger_fk_ctrl_1_l'
p453
a(lp454
VtranslateX
p455
aVtranslateY
p456
aVtranslateZ
p457
aVrotateX
p458
aVrotateY
p459
aVrotateZ
p460
aVsticky
p461
aaF0
aF0
aF0
aF0
aF0
aF0
aF0
aa(lp462
S'pinky_finger_fk_ctrl_1_r'
p463
a(lp464
VtranslateX
p465
aVtranslateY
p466
aVtranslateZ
p467
aVrotateX
p468
aVrotateY
p469
aVrotateZ
p470
aVsticky
p471
aaF0
aF0
aF0
aF0
aF0
aF0
aF0
aa(lp472
S'pinky_finger_fk_ctrl_2_l'
p473
a(lp474
VtranslateX
p475
aVtranslateY
p476
aVtranslateZ
p477
aVrotateX
p478
aVrotateY
p479
aVrotateZ
p480
aaF0
aF0
aF0
aF0
aF0
aF0
aa(lp481
S'pinky_finger_fk_ctrl_2_r'
p482
a(lp483
VtranslateX
p484
aVtranslateY
p485
aVtranslateZ
p486
aVrotateX
p487
aVrotateY
p488
aVrotateZ
p489
aaF0
aF0
aF0
aF0
aF0
aF0
aa(lp490
S'pinky_finger_fk_ctrl_3_l'
p491
a(lp492
VtranslateX
p493
aVtranslateY
p494
aVtranslateZ
p495
aVrotateX
p496
aVrotateY
p497
aVrotateZ
p498
aaF0
aF0
aF0
aF0
aF0
aF0
aa(lp499
S'pinky_finger_fk_ctrl_3_r'
p500
a(lp501
VtranslateX
p502
aVtranslateY
p503
aVtranslateZ
p504
aVrotateX
p505
aVrotateY
p506
aVrotateZ
p507
aaF0
aF0
aF0
aF0
aF0
aF0
aa(lp508
S'ring_metacarpal_ctrl_l'
p509
a(lp510
VrotateX
p511
aVrotateY
p512
aVrotateZ
p513
aaF0
aF0
aF0
aa(lp514
S'ring_metacarpal_ctrl_r'
p515
a(lp516
VrotateX
p517
aVrotateY
p518
aVrotateZ
p519
aaF0
aF0
aF0
aa(lp520
S'ring_finger_fk_ctrl_1_l'
p521
a(lp522
VtranslateX
p523
aVtranslateY
p524
aVtranslateZ
p525
aVrotateX
p526
aVrotateY
p527
aVrotateZ
p528
aVsticky
p529
aaF0
aF0
aF0
aF0
aF0
aF0
aF0
aa(lp530
S'ring_finger_fk_ctrl_1_r'
p531
a(lp532
VtranslateX
p533
aVtranslateY
p534
aVtranslateZ
p535
aVrotateX
p536
aVrotateY
p537
aVrotateZ
p538
aVsticky
p539
aaF0
aF0
aF0
aF0
aF0
aF0
aF0
aa(lp540
S'ring_finger_fk_ctrl_2_l'
p541
a(lp542
VtranslateX
p543
aVtranslateY
p544
aVtranslateZ
p545
aVrotateX
p546
aVrotateY
p547
aVrotateZ
p548
aaF0
aF0
aF0
aF0
aF0
aF0
aa(lp549
S'ring_finger_fk_ctrl_2_r'
p550
a(lp551
VtranslateX
p552
aVtranslateY
p553
aVtranslateZ
p554
aVrotateX
p555
aVrotateY
p556
aVrotateZ
p557
aaF0
aF0
aF0
aF0
aF0
aF0
aa(lp558
S'ring_finger_fk_ctrl_3_l'
p559
a(lp560
VtranslateX
p561
aVtranslateY
p562
aVtranslateZ
p563
aVrotateX
p564
aVrotateY
p565
aVrotateZ
p566
aaF0
aF0
aF0
aF0
aF0
aF0
aa(lp567
S'ring_finger_fk_ctrl_3_r'
p568
a(lp569
VtranslateX
p570
aVtranslateY
p571
aVtranslateZ
p572
aVrotateX
p573
aVrotateY
p574
aVrotateZ
p575
aaF0
aF0
aF0
aF0
aF0
aF0
aa(lp576
S'middle_metacarpal_ctrl_l'
p577
a(lp578
VrotateX
p579
aVrotateY
p580
aVrotateZ
p581
aaF0
aF0
aF0
aa(lp582
S'middle_metacarpal_ctrl_r'
p583
a(lp584
VrotateX
p585
aVrotateY
p586
aVrotateZ
p587
aaF0
aF0
aF0
aa(lp588
S'middle_finger_fk_ctrl_1_l'
p589
a(lp590
VtranslateX
p591
aVtranslateY
p592
aVtranslateZ
p593
aVrotateX
p594
aVrotateY
p595
aVrotateZ
p596
aVsticky
p597
aaF0
aF0
aF0
aF0
aF0
aF0
aF0
aa(lp598
S'middle_finger_fk_ctrl_1_r'
p599
a(lp600
VtranslateX
p601
aVtranslateY
p602
aVtranslateZ
p603
aVrotateX
p604
aVrotateY
p605
aVrotateZ
p606
aVsticky
p607
aaF0
aF0
aF0
aF0
aF0
aF0
aF0
aa(lp608
S'middle_finger_fk_ctrl_2_l'
p609
a(lp610
VtranslateX
p611
aVtranslateY
p612
aVtranslateZ
p613
aVrotateX
p614
aVrotateY
p615
aVrotateZ
p616
aaF0
aF0
aF0
aF0
aF0
aF0
aa(lp617
S'middle_finger_fk_ctrl_2_r'
p618
a(lp619
VtranslateX
p620
aVtranslateY
p621
aVtranslateZ
p622
aVrotateX
p623
aVrotateY
p624
aVrotateZ
p625
aaF0
aF0
aF0
aF0
aF0
aF0
aa(lp626
S'middle_finger_fk_ctrl_3_l'
p627
a(lp628
VtranslateX
p629
aVtranslateY
p630
aVtranslateZ
p631
aVrotateX
p632
aVrotateY
p633
aVrotateZ
p634
aaF0
aF0
aF0
aF0
aF0
aF0
aa(lp635
S'middle_finger_fk_ctrl_3_r'
p636
a(lp637
VtranslateX
p638
aVtranslateY
p639
aVtranslateZ
p640
aVrotateX
p641
aVrotateY
p642
aVrotateZ
p643
aaF0
aF0
aF0
aF0
aF0
aF0
aa(lp644
S'index_metacarpal_ctrl_l'
p645
a(lp646
VrotateX
p647
aVrotateY
p648
aVrotateZ
p649
aaF0
aF0
aF0
aa(lp650
S'index_metacarpal_ctrl_r'
p651
a(lp652
VrotateX
p653
aVrotateY
p654
aVrotateZ
p655
aaF0
aF0
aF0
aa(lp656
S'index_finger_fk_ctrl_1_l'
p657
a(lp658
VtranslateX
p659
aVtranslateY
p660
aVtranslateZ
p661
aVrotateX
p662
aVrotateY
p663
aVrotateZ
p664
aVsticky
p665
aaF0
aF0
aF0
aF0
aF0
aF0
aF0
aa(lp666
S'index_finger_fk_ctrl_1_r'
p667
a(lp668
VtranslateX
p669
aVtranslateY
p670
aVtranslateZ
p671
aVrotateX
p672
aVrotateY
p673
aVrotateZ
p674
aVsticky
p675
aaF0
aF0
aF0
aF0
aF0
aF0
aF0
aa(lp676
S'index_finger_fk_ctrl_2_l'
p677
a(lp678
VtranslateX
p679
aVtranslateY
p680
aVtranslateZ
p681
aVrotateX
p682
aVrotateY
p683
aVrotateZ
p684
aaF0
aF0
aF0
aF0
aF0
aF0
aa(lp685
S'index_finger_fk_ctrl_2_r'
p686
a(lp687
VtranslateX
p688
aVtranslateY
p689
aVtranslateZ
p690
aVrotateX
p691
aVrotateY
p692
aVrotateZ
p693
aaF0
aF0
aF0
aF0
aF0
aF0
aa(lp694
S'index_finger_fk_ctrl_3_l'
p695
a(lp696
VtranslateX
p697
aVtranslateY
p698
aVtranslateZ
p699
aVrotateX
p700
aVrotateY
p701
aVrotateZ
p702
aaF0
aF0
aF0
aF0
aF0
aF0
aa(lp703
S'index_finger_fk_ctrl_3_r'
p704
a(lp705
VtranslateX
p706
aVtranslateY
p707
aVtranslateZ
p708
aVrotateX
p709
aVrotateY
p710
aVrotateZ
p711
aaF0
aF0
aF0
aF0
aF0
aF0
aa(lp712
S'thumb_finger_fk_ctrl_1_l'
p713
a(lp714
VtranslateX
p715
aVtranslateY
p716
aVtranslateZ
p717
aVrotateX
p718
aVrotateY
p719
aVrotateZ
p720
aVsticky
p721
aaF0
aF0
aF0
aF0
aF0
aF0
aF0
aa(lp722
S'thumb_finger_fk_ctrl_1_r'
p723
a(lp724
VtranslateX
p725
aVtranslateY
p726
aVtranslateZ
p727
aVrotateX
p728
aVrotateY
p729
aVrotateZ
p730
aVsticky
p731
aaF0
aF0
aF0
aF0
aF0
aF0
aF0
aa(lp732
S'thumb_finger_fk_ctrl_2_l'
p733
a(lp734
VtranslateX
p735
aVtranslateY
p736
aVtranslateZ
p737
aVrotateX
p738
aVrotateY
p739
aVrotateZ
p740
aaF0
aF0
aF0
aF0
aF0
aF0
aa(lp741
S'thumb_finger_fk_ctrl_2_r'
p742
a(lp743
VtranslateX
p744
aVtranslateY
p745
aVtranslateZ
p746
aVrotateX
p747
aVrotateY
p748
aVrotateZ
p749
aaF0
aF0
aF0
aF0
aF0
aF0
aa(lp750
S'thumb_finger_fk_ctrl_3_l'
p751
a(lp752
VtranslateX
p753
aVtranslateY
p754
aVtranslateZ
p755
aVrotateX
p756
aVrotateY
p757
aVrotateZ
p758
aaF0
aF0
aF0
aF0
aF0
aF0
aa(lp759
S'thumb_finger_fk_ctrl_3_r'
p760
a(lp761
VtranslateX
p762
aVtranslateY
p763
aVtranslateZ
p764
aVrotateX
p765
aVrotateY
p766
aVrotateZ
p767
aaF0
aF0
aF0
aF0
aF0
aF0
aa(lp768
S'index_l_ik_anim'
p769
a(lp770
VtranslateX
p771
aVtranslateY
p772
aVtranslateZ
p773
aVrotateX
p774
aVrotateY
p775
aVrotateZ
p776
aVpoleVectorVis
p777
aaF0
aF0
aF0
aF0
aF0
aF0
aF0
aa(lp778
S'index_r_ik_anim'
p779
a(lp780
VtranslateX
p781
aVtranslateY
p782
aVtranslateZ
p783
aVrotateX
p784
aVrotateY
p785
aVrotateZ
p786
aVpoleVectorVis
p787
aaF0
aF0
aF0
aF0
aF0
aF0
aF0
aa(lp788
S'middle_l_ik_anim'
p789
a(lp790
VtranslateX
p791
aVtranslateY
p792
aVtranslateZ
p793
aVrotateX
p794
aVrotateY
p795
aVrotateZ
p796
aVpoleVectorVis
p797
aaF0
aF0
aF0
aF0
aF0
aF0
aF0
aa(lp798
S'middle_r_ik_anim'
p799
a(lp800
VtranslateX
p801
aVtranslateY
p802
aVtranslateZ
p803
aVrotateX
p804
aVrotateY
p805
aVrotateZ
p806
aVpoleVectorVis
p807
aaF0
aF0
aF0
aF0
aF0
aF0
aF0
aa(lp808
S'ring_l_ik_anim'
p809
a(lp810
VtranslateX
p811
aVtranslateY
p812
aVtranslateZ
p813
aVrotateX
p814
aVrotateY
p815
aVrotateZ
p816
aVpoleVectorVis
p817
aaF0
aF0
aF0
aF0
aF0
aF0
aF0
aa(lp818
S'ring_r_ik_anim'
p819
a(lp820
VtranslateX
p821
aVtranslateY
p822
aVtranslateZ
p823
aVrotateX
p824
aVrotateY
p825
aVrotateZ
p826
aVpoleVectorVis
p827
aaF0
aF0
aF0
aF0
aF0
aF0
aF0
aa(lp828
S'pinky_l_ik_anim'
p829
a(lp830
VtranslateX
p831
aVtranslateY
p832
aVtranslateZ
p833
aVrotateX
p834
aVrotateY
p835
aVrotateZ
p836
aVpoleVectorVis
p837
aaF0
aF0
aF0
aF0
aF0
aF0
aF0
aa(lp838
S'pinky_r_ik_anim'
p839
a(lp840
VtranslateX
p841
aVtranslateY
p842
aVtranslateZ
p843
aVrotateX
p844
aVrotateY
p845
aVrotateZ
p846
aVpoleVectorVis
p847
aaF0
aF0
aF0
aF0
aF0
aF0
aF0
aa(lp848
S'thumb_l_ik_anim'
p849
a(lp850
VtranslateX
p851
aVtranslateY
p852
aVtranslateZ
p853
aVrotateX
p854
aVrotateY
p855
aVrotateZ
p856
aVpoleVectorVis
p857
aaF0
aF0
aF0
aF0
aF0
aF0
aF0
aa(lp858
S'thumb_r_ik_anim'
p859
a(lp860
VtranslateX
p861
aVtranslateY
p862
aVtranslateZ
p863
aVrotateX
p864
aVrotateY
p865
aVrotateZ
p866
aVpoleVectorVis
p867
aaF0
aF0
aF0
aF0
aF0
aF0
aF0
aa(lp868
S'index_l_poleVector'
p869
a(lp870
VtranslateX
p871
aVtranslateY
p872
aVtranslateZ
p873
aVrotateX
p874
aVrotateY
p875
aVrotateZ
p876
aaF0
aF0
aF0
aF0
aF0
aF0
aa(lp877
S'index_r_poleVector'
p878
a(lp879
VtranslateX
p880
aVtranslateY
p881
aVtranslateZ
p882
aVrotateX
p883
aVrotateY
p884
aVrotateZ
p885
aaF0
aF0
aF0
aF0
aF0
aF0
aa(lp886
S'middle_l_poleVector'
p887
a(lp888
VtranslateX
p889
aVtranslateY
p890
aVtranslateZ
p891
aVrotateX
p892
aVrotateY
p893
aVrotateZ
p894
aaF0
aF0
aF0
aF0
aF0
aF0
aa(lp895
S'middle_r_poleVector'
p896
a(lp897
VtranslateX
p898
aVtranslateY
p899
aVtranslateZ
p900
aVrotateX
p901
aVrotateY
p902
aVrotateZ
p903
aaF0
aF0
aF0
aF0
aF0
aF0
aa(lp904
S'ring_l_poleVector'
p905
a(lp906
VtranslateX
p907
aVtranslateY
p908
aVtranslateZ
p909
aVrotateX
p910
aVrotateY
p911
aVrotateZ
p912
aaF0
aF0
aF0
aF0
aF0
aF0
aa(lp913
S'ring_r_poleVector'
p914
a(lp915
VtranslateX
p916
aVtranslateY
p917
aVtranslateZ
p918
aVrotateX
p919
aVrotateY
p920
aVrotateZ
p921
aaF0
aF0
aF0
aF0
aF0
aF0
aa(lp922
S'pinky_l_poleVector'
p923
a(lp924
VtranslateX
p925
aVtranslateY
p926
aVtranslateZ
p927
aVrotateX
p928
aVrotateY
p929
aVrotateZ
p930
aaF0
aF0
aF0
aF0
aF0
aF0
aa(lp931
S'pinky_r_poleVector'
p932
a(lp933
VtranslateX
p934
aVtranslateY
p935
aVtranslateZ
p936
aVrotateX
p937
aVrotateY
p938
aVrotateZ
p939
aaF0
aF0
aF0
aF0
aF0
aF0
aa(lp940
S'thumb_l_poleVector'
p941
a(lp942
VtranslateX
p943
aVtranslateY
p944
aVtranslateZ
p945
aVrotateX
p946
aVrotateY
p947
aVrotateZ
p948
aaF0
aF0
aF0
aF0
aF0
aF0
aa(lp949
S'thumb_r_poleVector'
p950
a(lp951
VtranslateX
p952
aVtranslateY
p953
aVtranslateZ
p954
aVrotateX
p955
aVrotateY
p956
aVrotateZ
p957
aaF0
aF0
aF0
aF0
aF0
aF0
aa(lp958
S'l_global_ik_anim'
p959
a(lp960
VtranslateX
p961
aVtranslateY
p962
aVtranslateZ
p963
aVrotateX
p964
aVrotateY
p965
aVrotateZ
p966
aaF0
aF0
aF0
aF0
aF0
aF0
aa(lp967
S'r_global_ik_anim'
p968
a(lp969
VtranslateX
p970
aVtranslateY
p971
aVtranslateZ
p972
aVrotateX
p973
aVrotateY
p974
aVrotateZ
p975
aaF0
aF0
aF0
aF0
aF0
aF0
aa(lp976
S'Rig_Settings'
p977
a(lp978
Vspine_ik
p979
aVspine_fk
p980
aVlLegMode
p981
aVlThighTwistAmount
p982
aVllegTwistCtrlVis
p983
aVlCalfTwistAmount
p984
aVrLegMode
p985
aVrThighTwistAmount
p986
aVrlegTwistCtrlVis
p987
aVrCalfTwistAmount
p988
aVlFkArmOrient
p989
aVlArmMode
p990
aVlClavMode
p991
aVlUpperarmTwistAmount
p992
aVltwistCtrlVis
p993
aVltwistCtrlVisLower
p994
aVlForearmTwistAmount
p995
aVrFkArmOrient
p996
aVrArmMode
p997
aVrClavMode
p998
aVrUpperarmTwistAmount
p999
aVrtwistCtrlVis
p1000
aVrtwistCtrlVisLower
p1001
aVrForearmTwistAmount
p1002
aVwings_shld_r_fk
p1003
aVwings_shld_r_ik
p1004
aVwings_shld_r_dynamic
p1005
aVwings_elbow_01_r_fk
p1006
aVwings_elbow_01_r_ik
p1007
aVwings_elbow_01_r_dynamic
p1008
aVwings_elbow_01_l_fk
p1009
aVwings_elbow_01_l_ik
p1010
aVwings_elbow_01_l_dynamic
p1011
aVwings_elbow_02_r_fk
p1012
aVwings_elbow_02_r_ik
p1013
aVwings_elbow_02_r_dynamic
p1014
aVwings_shld_l_fk
p1015
aVwings_shld_l_ik
p1016
aVwings_shld_l_dynamic
p1017
aVwings_elbow_02_l_fk
p1018
aVwings_elbow_02_l_ik
p1019
aVwings_elbow_02_l_dynamic
p1020
aaF1
aF0
aI1
aF1
aI00
aF0.5
aI1
aF1
aI00
aF0.5
aI0
aI1
aI1
aF0.90000000000000002
aI00
aI00
aF0.5
aI0
aI1
aI1
aF0.90000000000000002
aI00
aI00
aF0.5
aF1
aF0
aF0
aF1
aF0
aF0
aF1
aF0
aF0
aF1
aF0
aF0
aF1
aF0
aF0
aF1
aF0
aF0
aa(lp1021
S'calf_l_twist_anim'
p1022
a(lp1023
VtranslateX
p1024
aVtranslateY
p1025
aVtranslateZ
p1026
aVrotateX
p1027
aVrotateY
p1028
aVrotateZ
p1029
aaF0
aF0
aF0
aF0
aF0
aF0
aa(lp1030
S'calf_r_twist_anim'
p1031
a(lp1032
VtranslateX
p1033
aVtranslateY
p1034
aVtranslateZ
p1035
aVrotateX
p1036
aVrotateY
p1037
aVrotateZ
p1038
aaF0
aF0
aF0
aF0
aF0
aF0
aa(lp1039
Vwings_shld_r_dyn_anim
p1040
a(lp1041
VtranslateX
p1042
aVtranslateY
p1043
aVtranslateZ
p1044
aVrotateX
p1045
aVrotateY
p1046
aVrotateZ
p1047
aVchainAttach
p1048
aVchainStartEnvelope
p1049
aVchainStartFrame
p1050
aVchainStiffness
p1051
aVchainDamping
p1052
aVchainGravity
p1053
aVchainIteration
p1054
aVchainCollide
p1055
aVchainWidthBase
p1056
aVchainWidthExtremity
p1057
aVchainCollideGround
p1058
aVchainCollideGroundHeight
p1059
aaF0
aF0
aF0
aF0
aF0
aF0
aI1
aF1
aF1
aF0.10000000000000001
aF0.20000000000000001
aF1
aI1
aI00
aF1
aF1
aI00
aF0
aa(lp1060
Vwings_shld_r_ik_2_anim
p1061
a(lp1062
VtranslateX
p1063
aVtranslateY
p1064
aVtranslateZ
p1065
aVrotateX
p1066
aVrotateY
p1067
aVrotateZ
p1068
aaF-7.1054273576010019e-15
aF0
aF2.8421709430404007e-14
aF-3.1805546814635168e-15
aF7.9513867036587919e-16
aF-1.5902773407317584e-15
aa(lp1069
Vwings_shld_r_ik_3_anim
p1070
a(lp1071
VtranslateX
p1072
aVtranslateY
p1073
aVtranslateZ
p1074
aVrotateX
p1075
aVrotateY
p1076
aVrotateZ
p1077
aVclusterControlVis
p1078
aaF1.0658141036401503e-14
aF1.4210854715202004e-14
aF2.8421709430404007e-14
aF-3.1805546814635168e-15
aF7.9513867036587919e-16
aF-1.5902773407317584e-15
aI00
aa(lp1079
Vwings_shld_r_ik_base_anim
p1080
a(lp1081
VtranslateX
p1082
aVtranslateY
p1083
aVtranslateZ
p1084
aVrotateX
p1085
aVrotateY
p1086
aVrotateZ
p1087
aVglobal_scale
p1088
aaF0
aF0
aF0
aF5.649800061504203e-30
aF-4.2373500461281523e-30
aF-8.002290503096504e-46
aF1
aa(lp1089
Vfk_wings_shld_r_01_anim
p1090
a(lp1091
VtranslateX
p1092
aVtranslateY
p1093
aVtranslateZ
p1094
aVrotateX
p1095
aVrotateY
p1096
aVrotateZ
p1097
aVglobal_scale
p1098
aVlagMode
p1099
aaF0
aF0
aF0
aF5.649800061504203e-30
aF-4.2373500461281523e-30
aF-8.002290503096504e-46
aF1
aF0
aa(lp1100
Vwings_shld_r_cv_0_anim
p1101
a(lp1102
VtranslateX
p1103
aVtranslateY
p1104
aVtranslateZ
p1105
aaF0
aF0
aF0
aa(lp1106
Vfk_wings_shld_r_02_anim
p1107
a(lp1108
VtranslateX
p1109
aVtranslateY
p1110
aVtranslateZ
p1111
aVrotateX
p1112
aVrotateY
p1113
aVrotateZ
p1114
aaF3.8857805861880479e-16
aF0
aF1.7763568394002505e-15
aF0
aF-3.0943628920000278e-15
aF-5.5908187760100887e-17
aa(lp1115
Vwings_shld_r_cv_1_anim
p1116
a(lp1117
VtranslateX
p1118
aVtranslateY
p1119
aVtranslateZ
p1120
aaF0
aF0
aF0
aa(lp1121
Vfk_wings_shld_r_03_anim
p1122
a(lp1123
VtranslateX
p1124
aVtranslateY
p1125
aVtranslateZ
p1126
aVrotateX
p1127
aVrotateY
p1128
aVrotateZ
p1129
aaF-2.886579864025407e-15
aF2.8421709430404007e-14
aF2.1316282072803006e-14
aF-7.9513867036587959e-16
aF-3.4402948037656528e-15
aF-5.9324799234329277e-16
aa(lp1130
Vwings_shld_r_cv_2_anim
p1131
a(lp1132
VtranslateX
p1133
aVtranslateY
p1134
aVtranslateZ
p1135
aaF0
aF0
aF0
aa(lp1136
Vfk_wings_shld_r_04_anim
p1137
a(lp1138
VtranslateX
p1139
aVtranslateY
p1140
aVtranslateZ
p1141
aVrotateX
p1142
aVrotateY
p1143
aVrotateZ
p1144
aaF3.5527136788005009e-15
aF2.8421709430404007e-14
aF0
aF-3.9756933518293969e-16
aF1.800321296136027e-15
aF-1.1492238595131852e-16
aa(lp1145
Vwings_shld_r_cv_3_anim
p1146
a(lp1147
VtranslateX
p1148
aVtranslateY
p1149
aVtranslateZ
p1150
aaF0
aF0
aF0
aa(lp1151
Vfk_wings_shld_r_05_anim
p1152
a(lp1153
VtranslateX
p1154
aVtranslateY
p1155
aVtranslateZ
p1156
aVrotateX
p1157
aVrotateY
p1158
aVrotateZ
p1159
aaF0
aF-8.5265128291212022e-14
aF1.7763568394002505e-14
aF0
aF2.3854160110976368e-15
aF-7.9513867036587899e-16
aa(lp1160
Vwings_shld_r_cv_4_anim
p1161
a(lp1162
VtranslateX
p1163
aVtranslateY
p1164
aVtranslateZ
p1165
aaF0
aF0
aF0
aa(lp1166
Vfk_wings_shld_r_06_anim
p1167
a(lp1168
VtranslateX
p1169
aVtranslateY
p1170
aVtranslateZ
p1171
aVrotateX
p1172
aVrotateY
p1173
aVrotateZ
p1174
aaF0
aF0
aF-1.4210854715202004e-14
aF-3.1805546814635168e-15
aF-0
aF-1.5902773407317584e-15
aa(lp1175
Vwings_shld_r_cv_5_anim
p1176
a(lp1177
VtranslateX
p1178
aVtranslateY
p1179
aVtranslateZ
p1180
aaF0
aF0
aF0
aa(lp1181
Vweapon_l_anim
p1182
a(lp1183
VtranslateX
p1184
aVtranslateY
p1185
aVtranslateZ
p1186
aVrotateX
p1187
aVrotateY
p1188
aVrotateZ
p1189
aVscaleX
p1190
aVscaleY
p1191
aVscaleZ
p1192
aaF0
aF1.4210854715202004e-14
aF0
aF-1.5902773407317584e-15
aF-0
aF0
aF1.0000000000000002
aF1
aF1
aa(lp1193
Vwings_elbow_01_r_dyn_anim
p1194
a(lp1195
VtranslateX
p1196
aVtranslateY
p1197
aVtranslateZ
p1198
aVrotateX
p1199
aVrotateY
p1200
aVrotateZ
p1201
aVchainAttach
p1202
aVchainStartEnvelope
p1203
aVchainStartFrame
p1204
aVchainStiffness
p1205
aVchainDamping
p1206
aVchainGravity
p1207
aVchainIteration
p1208
aVchainCollide
p1209
aVchainWidthBase
p1210
aVchainWidthExtremity
p1211
aVchainCollideGround
p1212
aVchainCollideGroundHeight
p1213
aaF0
aF0
aF0
aF0
aF0
aF0
aI1
aF1
aF1
aF0.10000000000000001
aF0.20000000000000001
aF1
aI1
aI00
aF1
aF1
aI00
aF0
aa(lp1214
Vwings_elbow_01_r_ik_2_anim
p1215
a(lp1216
VtranslateX
p1217
aVtranslateY
p1218
aVtranslateZ
p1219
aVrotateX
p1220
aVrotateY
p1221
aVrotateZ
p1222
aaF0
aF-3.5527136788005009e-15
aF7.1054273576010019e-15
aF-3.1805546814635168e-15
aF-3.1805546814635168e-15
aF0
aa(lp1223
Vwings_elbow_01_r_ik_3_anim
p1224
a(lp1225
VtranslateX
p1226
aVtranslateY
p1227
aVtranslateZ
p1228
aVrotateX
p1229
aVrotateY
p1230
aVrotateZ
p1231
aVclusterControlVis
p1232
aaF0
aF7.1054273576010019e-15
aF0
aF-3.1805546814635168e-15
aF-3.1805546814635168e-15
aF0
aI00
aa(lp1233
Vwings_elbow_01_r_ik_base_anim
p1234
a(lp1235
VtranslateX
p1236
aVtranslateY
p1237
aVtranslateZ
p1238
aVrotateX
p1239
aVrotateY
p1240
aVrotateZ
p1241
aVglobal_scale
p1242
aaF0
aF-2.8421709430404007e-14
aF3.5527136788005009e-15
aF3.1805546814635176e-15
aF-1.5902773407317584e-15
aF-3.1805546814635168e-15
aF1
aa(lp1243
Vfk_wings_elbow_01_r_01_anim
p1244
a(lp1245
VtranslateX
p1246
aVtranslateY
p1247
aVtranslateZ
p1248
aVrotateX
p1249
aVrotateY
p1250
aVrotateZ
p1251
aVglobal_scale
p1252
aVlagMode
p1253
aaF-1.4210854715202004e-14
aF-2.8421709430404007e-14
aF-1.4210854715202004e-14
aF3.1805546814635168e-15
aF7.1562480332929135e-15
aF0
aF1.0000000000000002
aF0
aa(lp1254
Vwings_elbow_01_r_cv_0_anim
p1255
a(lp1256
VtranslateX
p1257
aVtranslateY
p1258
aVtranslateZ
p1259
aaF0
aF0
aF0
aa(lp1260
Vfk_wings_elbow_01_r_02_anim
p1261
a(lp1262
VtranslateX
p1263
aVtranslateY
p1264
aVtranslateZ
p1265
aVrotateX
p1266
aVrotateY
p1267
aVrotateZ
p1268
aaF0
aF-1.4210854715202004e-14
aF-3.5527136788005009e-15
aF1.5902773407317588e-15
aF-0
aF0
aa(lp1269
Vwings_elbow_01_r_cv_1_anim
p1270
a(lp1271
VtranslateX
p1272
aVtranslateY
p1273
aVtranslateZ
p1274
aaF0
aF0
aF0
aa(lp1275
Vwings_elbow_01_l_dyn_anim
p1276
a(lp1277
VtranslateX
p1278
aVtranslateY
p1279
aVtranslateZ
p1280
aVrotateX
p1281
aVrotateY
p1282
aVrotateZ
p1283
aVchainAttach
p1284
aVchainStartEnvelope
p1285
aVchainStartFrame
p1286
aVchainStiffness
p1287
aVchainDamping
p1288
aVchainGravity
p1289
aVchainIteration
p1290
aVchainCollide
p1291
aVchainWidthBase
p1292
aVchainWidthExtremity
p1293
aVchainCollideGround
p1294
aVchainCollideGroundHeight
p1295
aaF0
aF0
aF0
aF0
aF0
aF0
aI1
aF1
aF1
aF0.10000000000000001
aF0.20000000000000001
aF1
aI1
aI00
aF1
aF1
aI00
aF0
aa(lp1296
Vwings_elbow_01_l_ik_2_anim
p1297
a(lp1298
VtranslateX
p1299
aVtranslateY
p1300
aVtranslateZ
p1301
aVrotateX
p1302
aVrotateY
p1303
aVrotateZ
p1304
aaF0
aF-5.3290705182007514e-15
aF-7.1054273576010019e-15
aF3.1805546814635176e-15
aF-0
aF3.1805546814635168e-15
aa(lp1305
Vwings_elbow_01_l_ik_3_anim
p1306
a(lp1307
VtranslateX
p1308
aVtranslateY
p1309
aVtranslateZ
p1310
aVrotateX
p1311
aVrotateY
p1312
aVrotateZ
p1313
aVclusterControlVis
p1314
aaF1.4210854715202004e-14
aF7.1054273576010019e-15
aF7.1054273576010019e-15
aF3.1805546814635176e-15
aF-0
aF3.1805546814635168e-15
aI00
aa(lp1315
Vwings_elbow_01_l_ik_base_anim
p1316
a(lp1317
VtranslateX
p1318
aVtranslateY
p1319
aVtranslateZ
p1320
aVrotateX
p1321
aVrotateY
p1322
aVrotateZ
p1323
aVglobal_scale
p1324
aaF0
aF2.8421709430404007e-14
aF7.1054273576010019e-15
aF3.1805546814635168e-15
aF2.3854160110976376e-15
aF-3.1805546814635168e-15
aF1
aa(lp1325
Vfk_wings_elbow_01_l_01_anim
p1326
a(lp1327
VtranslateX
p1328
aVtranslateY
p1329
aVtranslateZ
p1330
aVrotateX
p1331
aVrotateY
p1332
aVrotateZ
p1333
aVglobal_scale
p1334
aVlagMode
p1335
aaF1.4210854715202004e-14
aF0
aF1.4210854715202004e-14
aF3.1805546814635168e-15
aF2.3854160110976376e-15
aF-3.1805546814635168e-15
aF1
aF0
aa(lp1336
Vwings_elbow_01_l_cv_0_anim
p1337
a(lp1338
VtranslateX
p1339
aVtranslateY
p1340
aVtranslateZ
p1341
aaF0
aF0
aF0
aa(lp1342
Vfk_wings_elbow_01_l_02_anim
p1343
a(lp1344
VtranslateX
p1345
aVtranslateY
p1346
aVtranslateZ
p1347
aVrotateX
p1348
aVrotateY
p1349
aVrotateZ
p1350
aaF0
aF7.1054273576010019e-15
aF3.5527136788005009e-15
aF-1.5902773407317584e-15
aF3.1805546814635168e-15
aF-6.3611093629270335e-15
aa(lp1351
Vwings_elbow_01_l_cv_1_anim
p1352
a(lp1353
VtranslateX
p1354
aVtranslateY
p1355
aVtranslateZ
p1356
aaF0
aF0
aF0
aa(lp1357
Vweapon_r_anim
p1358
a(lp1359
VtranslateX
p1360
aVtranslateY
p1361
aVtranslateZ
p1362
aVrotateX
p1363
aVrotateY
p1364
aVrotateZ
p1365
aVscaleX
p1366
aVscaleY
p1367
aVscaleZ
p1368
aaF0
aF0
aF-1.4210854715202004e-14
aF6.3611093629270335e-15
aF-0
aF1.590277340731758e-15
aF1.0000000000000002
aF1
aF1
aa(lp1369
Vwings_elbow_02_r_dyn_anim
p1370
a(lp1371
VtranslateX
p1372
aVtranslateY
p1373
aVtranslateZ
p1374
aVrotateX
p1375
aVrotateY
p1376
aVrotateZ
p1377
aVchainAttach
p1378
aVchainStartEnvelope
p1379
aVchainStartFrame
p1380
aVchainStiffness
p1381
aVchainDamping
p1382
aVchainGravity
p1383
aVchainIteration
p1384
aVchainCollide
p1385
aVchainWidthBase
p1386
aVchainWidthExtremity
p1387
aVchainCollideGround
p1388
aVchainCollideGroundHeight
p1389
aaF0
aF0
aF0
aF0
aF0
aF0
aI1
aF1
aF1
aF0.10000000000000001
aF0.20000000000000001
aF1
aI1
aI00
aF1
aF1
aI00
aF0
aa(lp1390
Vwings_elbow_02_r_ik_2_anim
p1391
a(lp1392
VtranslateX
p1393
aVtranslateY
p1394
aVtranslateZ
p1395
aVrotateX
p1396
aVrotateY
p1397
aVrotateZ
p1398
aaF-5.6843418860808015e-14
aF0
aF0
aF-1.4908850069360234e-15
aF-1.9878466759146985e-16
aF1.5902773407317588e-15
aa(lp1399
Vwings_elbow_02_r_ik_3_anim
p1400
a(lp1401
VtranslateX
p1402
aVtranslateY
p1403
aVtranslateZ
p1404
aVrotateX
p1405
aVrotateY
p1406
aVrotateZ
p1407
aVclusterControlVis
p1408
aaF2.8421709430404007e-14
aF0
aF0
aF1.3666445896913544e-15
aF-1.987846675914698e-16
aF7.9513867036587919e-16
aI00
aa(lp1409
Vwings_elbow_02_r_ik_base_anim
p1410
a(lp1411
VtranslateX
p1412
aVtranslateY
p1413
aVtranslateZ
p1414
aVrotateX
p1415
aVrotateY
p1416
aVrotateZ
p1417
aVglobal_scale
p1418
aaF-2.8421709430404007e-14
aF2.8421709430404007e-14
aF-1.7763568394002505e-15
aF-1.987846675914698e-15
aF-0
aF1.5902773407317584e-15
aF1
aa(lp1419
Vfk_wings_elbow_02_r_01_anim
p1420
a(lp1421
VtranslateX
p1422
aVtranslateY
p1423
aVtranslateZ
p1424
aVrotateX
p1425
aVrotateY
p1426
aVrotateZ
p1427
aVglobal_scale
p1428
aVlagMode
p1429
aaF0
aF2.8421709430404007e-14
aF9.7699626167013776e-15
aF3.975693351829396e-16
aF-0
aF0
aF1.0000000000000002
aF0
aa(lp1430
Vwings_elbow_02_r_cv_0_anim
p1431
a(lp1432
VtranslateX
p1433
aVtranslateY
p1434
aVtranslateZ
p1435
aaF0
aF0
aF0
aa(lp1436
Vfk_wings_elbow_02_r_02_anim
p1437
a(lp1438
VtranslateX
p1439
aVtranslateY
p1440
aVtranslateZ
p1441
aVrotateX
p1442
aVrotateY
p1443
aVrotateZ
p1444
aaF0
aF2.8421709430404007e-14
aF1.4210854715202004e-14
aF1.0684675883041502e-15
aF-1.987846675914698e-16
aF7.9513867036587919e-16
aa(lp1445
Vwings_elbow_02_r_cv_1_anim
p1446
a(lp1447
VtranslateX
p1448
aVtranslateY
p1449
aVtranslateZ
p1450
aaF0
aF0
aF0
aa(lp1451
Vwings_shld_l_dyn_anim
p1452
a(lp1453
VtranslateX
p1454
aVtranslateY
p1455
aVtranslateZ
p1456
aVrotateX
p1457
aVrotateY
p1458
aVrotateZ
p1459
aVchainAttach
p1460
aVchainStartEnvelope
p1461
aVchainStartFrame
p1462
aVchainStiffness
p1463
aVchainDamping
p1464
aVchainGravity
p1465
aVchainIteration
p1466
aVchainCollide
p1467
aVchainWidthBase
p1468
aVchainWidthExtremity
p1469
aVchainCollideGround
p1470
aVchainCollideGroundHeight
p1471
aaF0
aF0
aF0
aF0
aF0
aF0
aI1
aF1
aF1
aF0.10000000000000001
aF0.20000000000000001
aF1
aI1
aI00
aF1
aF1
aI00
aF0
aa(lp1472
Vwings_shld_l_ik_2_anim
p1473
a(lp1474
VtranslateX
p1475
aVtranslateY
p1476
aVtranslateZ
p1477
aVrotateX
p1478
aVrotateY
p1479
aVrotateZ
p1480
aaF3.5527136788005009e-15
aF0
aF1.4210854715202004e-14
aF0
aF7.9513867036587919e-16
aF1.5902773407317584e-15
aa(lp1481
Vwings_shld_l_ik_3_anim
p1482
a(lp1483
VtranslateX
p1484
aVtranslateY
p1485
aVtranslateZ
p1486
aVrotateX
p1487
aVrotateY
p1488
aVrotateZ
p1489
aVclusterControlVis
p1490
aaF7.1054273576010019e-15
aF1.4210854715202004e-14
aF0
aF0
aF7.9513867036587919e-16
aF1.5902773407317584e-15
aI00
aa(lp1491
Vwings_shld_l_ik_base_anim
p1492
a(lp1493
VtranslateX
p1494
aVtranslateY
p1495
aVtranslateZ
p1496
aVrotateX
p1497
aVrotateY
p1498
aVrotateZ
p1499
aVglobal_scale
p1500
aaF0
aF0
aF0
aF0
aF0
aF0
aF1
aa(lp1501
Vfk_wings_shld_l_01_anim
p1502
a(lp1503
VtranslateX
p1504
aVtranslateY
p1505
aVtranslateZ
p1506
aVrotateX
p1507
aVrotateY
p1508
aVrotateZ
p1509
aVglobal_scale
p1510
aVlagMode
p1511
aaF0
aF0
aF0
aF0
aF0
aF0
aF1
aF0
aa(lp1512
Vwings_shld_l_cv_0_anim
p1513
a(lp1514
VtranslateX
p1515
aVtranslateY
p1516
aVtranslateZ
p1517
aaF0
aF0
aF0
aa(lp1518
Vfk_wings_shld_l_02_anim
p1519
a(lp1520
VtranslateX
p1521
aVtranslateY
p1522
aVtranslateZ
p1523
aVrotateX
p1524
aVrotateY
p1525
aVrotateZ
p1526
aaF-1.1435297153639112e-14
aF2.8421709430404007e-14
aF0
aF1.5902773407317588e-15
aF5.2592521624883797e-15
aF2.8885897009385459e-16
aa(lp1527
Vwings_shld_l_cv_1_anim
p1528
a(lp1529
VtranslateX
p1530
aVtranslateY
p1531
aVtranslateZ
p1532
aaF0
aF0
aF0
aa(lp1533
Vfk_wings_shld_l_03_anim
p1534
a(lp1535
VtranslateX
p1536
aVtranslateY
p1537
aVtranslateZ
p1538
aVrotateX
p1539
aVrotateY
p1540
aVrotateZ
p1541
aaF2.2204460492503131e-15
aF-2.8421709430404007e-14
aF-1.4210854715202004e-14
aF0
aF3.1502710797601279e-15
aF-5.8392996104994242e-16
aa(lp1542
Vwings_shld_l_cv_2_anim
p1543
a(lp1544
VtranslateX
p1545
aVtranslateY
p1546
aVtranslateZ
p1547
aaF0
aF0
aF0
aa(lp1548
Vfk_wings_shld_l_04_anim
p1549
a(lp1550
VtranslateX
p1551
aVtranslateY
p1552
aVtranslateZ
p1553
aVrotateX
p1554
aVrotateY
p1555
aVrotateZ
p1556
aaF3.1086244689504383e-15
aF-2.8421709430404007e-14
aF-7.1054273576010019e-15
aF-3.975693351829395e-16
aF-2.2842765464343991e-15
aF-3.4787316828507205e-16
aa(lp1557
Vwings_shld_l_cv_3_anim
p1558
a(lp1559
VtranslateX
p1560
aVtranslateY
p1561
aVtranslateZ
p1562
aaF0
aF0
aF0
aa(lp1563
Vfk_wings_shld_l_05_anim
p1564
a(lp1565
VtranslateX
p1566
aVtranslateY
p1567
aVtranslateZ
p1568
aVrotateX
p1569
aVrotateY
p1570
aVrotateZ
p1571
aaF3.5527136788005009e-15
aF-2.8421709430404007e-14
aF3.5527136788005009e-15
aF3.1805546814635168e-15
aF-2.5842006786891076e-15
aF7.9513867036587919e-16
aa(lp1572
Vwings_shld_l_cv_4_anim
p1573
a(lp1574
VtranslateX
p1575
aVtranslateY
p1576
aVtranslateZ
p1577
aaF0
aF0
aF0
aa(lp1578
Vfk_wings_shld_l_06_anim
p1579
a(lp1580
VtranslateX
p1581
aVtranslateY
p1582
aVtranslateZ
p1583
aVrotateX
p1584
aVrotateY
p1585
aVrotateZ
p1586
aaF0
aF0
aF0
aF-3.1805546814635168e-15
aF1.5902773407317584e-15
aF0
aa(lp1587
Vwings_shld_l_cv_5_anim
p1588
a(lp1589
VtranslateX
p1590
aVtranslateY
p1591
aVtranslateZ
p1592
aaF0
aF0
aF0
aa(lp1593
Vwings_elbow_02_l_dyn_anim
p1594
a(lp1595
VtranslateX
p1596
aVtranslateY
p1597
aVtranslateZ
p1598
aVrotateX
p1599
aVrotateY
p1600
aVrotateZ
p1601
aVchainAttach
p1602
aVchainStartEnvelope
p1603
aVchainStartFrame
p1604
aVchainStiffness
p1605
aVchainDamping
p1606
aVchainGravity
p1607
aVchainIteration
p1608
aVchainCollide
p1609
aVchainWidthBase
p1610
aVchainWidthExtremity
p1611
aVchainCollideGround
p1612
aVchainCollideGroundHeight
p1613
aaF0
aF0
aF0
aF0
aF0
aF0
aI1
aF1
aF1
aF0.10000000000000001
aF0.20000000000000001
aF1
aI1
aI00
aF1
aF1
aI00
aF0
aa(lp1614
Vwings_elbow_02_l_ik_2_anim
p1615
a(lp1616
VtranslateX
p1617
aVtranslateY
p1618
aVtranslateZ
p1619
aVrotateX
p1620
aVrotateY
p1621
aVrotateZ
p1622
aaF2.8421709430404007e-14
aF0
aF0
aF1.167859922099885e-15
aF-0
aF-7.9513867036587919e-16
aa(lp1623
Vwings_elbow_02_l_ik_3_anim
p1624
a(lp1625
VtranslateX
p1626
aVtranslateY
p1627
aVtranslateZ
p1628
aVrotateX
p1629
aVrotateY
p1630
aVrotateZ
p1631
aVclusterControlVis
p1632
aaF0
aF0
aF1.4210854715202004e-14
aF7.3301846174354492e-16
aF-1.987846675914698e-16
aF0
aI00
aa(lp1633
Vwings_elbow_02_l_ik_base_anim
p1634
a(lp1635
VtranslateX
p1636
aVtranslateY
p1637
aVtranslateZ
p1638
aVrotateX
p1639
aVrotateY
p1640
aVrotateZ
p1641
aVglobal_scale
p1642
aaF0
aF0
aF4.4408920985006262e-15
aF2.3854160110976376e-15
aF-7.9513867036587919e-16
aF0
aF1
aa(lp1643
Vfk_wings_elbow_02_l_01_anim
p1644
a(lp1645
VtranslateX
p1646
aVtranslateY
p1647
aVtranslateZ
p1648
aVrotateX
p1649
aVrotateY
p1650
aVrotateZ
p1651
aVglobal_scale
p1652
aVlagMode
p1653
aaF0
aF0
aF-6.2172489379008766e-15
aF-1.7890620083232284e-15
aF-0
aF0
aF1
aF0
aa(lp1654
Vwings_elbow_02_l_cv_0_anim
p1655
a(lp1656
VtranslateX
p1657
aVtranslateY
p1658
aVtranslateZ
p1659
aaF0
aF0
aF0
aa(lp1660
Vfk_wings_elbow_02_l_02_anim
p1661
a(lp1662
VtranslateX
p1663
aVtranslateY
p1664
aVtranslateZ
p1665
aVrotateX
p1666
aVrotateY
p1667
aVrotateZ
p1668
aaF2.8421709430404007e-14
aF0
aF0
aF2.8575295966273782e-16
aF-0
aF0
aa(lp1669
Vwings_elbow_02_l_cv_1_anim
p1670
a(lp1671
VtranslateX
p1672
aVtranslateY
p1673
aVtranslateZ
p1674
aaF0
aF0
aF0
aa(lp1675
Vbody_anim_space_switcher
p1676
a(lp1677
Vvisibility
p1678
aVtranslateX
p1679
aVtranslateY
p1680
aVtranslateZ
p1681
aVrotateX
p1682
aVrotateY
p1683
aVrotateZ
p1684
aVscaleX
p1685
aVscaleY
p1686
aVscaleZ
p1687
aVspace_world
p1688
aaI01
aF0
aF0
aF0
aF0
aF0
aF0
aF1
aF1
aF1
aF0
aa(lp1689
Vchest_ik_anim_space_switcher
p1690
a(lp1691
Vvisibility
p1692
aVtranslateX
p1693
aVtranslateY
p1694
aVtranslateZ
p1695
aVrotateX
p1696
aVrotateY
p1697
aVrotateZ
p1698
aVscaleX
p1699
aVscaleY
p1700
aVscaleZ
p1701
aVspace_world
p1702
aVspace_chest_ik_world_aligned
p1703
aaI01
aF2.8421709430404007e-14
aF3.5527136788005009e-15
aF2.2204460492503131e-16
aF0
aF-0
aF0
aF1
aF1
aF0.99999999999999989
aF0
aF1
aa(lp1704
Vik_elbow_l_anim_space_switcher
p1705
a(lp1706
Vvisibility
p1707
aVtranslateX
p1708
aVtranslateY
p1709
aVtranslateZ
p1710
aVrotateX
p1711
aVrotateY
p1712
aVrotateZ
p1713
aVscaleX
p1714
aVscaleY
p1715
aVscaleZ
p1716
aVspace_world
p1717
aVspace_body_anim
p1718
aVspace_chest_ik_anim
p1719
aaI01
aF0
aF0
aF0
aF0
aF0
aF0
aF1
aF1
aF1
aF0
aF0
aF0
aa(lp1720
Vik_elbow_r_anim_space_switcher
p1721
a(lp1722
Vvisibility
p1723
aVtranslateX
p1724
aVtranslateY
p1725
aVtranslateZ
p1726
aVrotateX
p1727
aVrotateY
p1728
aVrotateZ
p1729
aVscaleX
p1730
aVscaleY
p1731
aVscaleZ
p1732
aVspace_world
p1733
aVspace_body_anim
p1734
aVspace_chest_ik_anim
p1735
aaI01
aF0
aF0
aF0
aF0
aF0
aF0
aF1
aF1
aF1
aF0
aF0
aF0
aa(lp1736
Vik_foot_anim_l_space_switcher
p1737
a(lp1738
Vvisibility
p1739
aVtranslateX
p1740
aVtranslateY
p1741
aVtranslateZ
p1742
aVrotateX
p1743
aVrotateY
p1744
aVrotateZ
p1745
aVscaleX
p1746
aVscaleY
p1747
aVscaleZ
p1748
aVspace_world
p1749
aVspace_body_anim
p1750
aaI01
aF0
aF0
aF0
aF0
aF0
aF0
aF1
aF1
aF1
aF0
aF0
aa(lp1751
Vik_foot_anim_r_space_switcher
p1752
a(lp1753
Vvisibility
p1754
aVtranslateX
p1755
aVtranslateY
p1756
aVtranslateZ
p1757
aVrotateX
p1758
aVrotateY
p1759
aVrotateZ
p1760
aVscaleX
p1761
aVscaleY
p1762
aVscaleZ
p1763
aVspace_world
p1764
aVspace_body_anim
p1765
aaI01
aF0
aF0
aF0
aF0
aF0
aF0
aF1
aF1
aF1
aF0
aF0
aa(lp1766
Vik_wrist_l_anim_space_switcher
p1767
a(lp1768
Vvisibility
p1769
aVtranslateX
p1770
aVtranslateY
p1771
aVtranslateZ
p1772
aVrotateX
p1773
aVrotateY
p1774
aVrotateZ
p1775
aVscaleX
p1776
aVscaleY
p1777
aVscaleZ
p1778
aVspace_world
p1779
aVspace_body_anim
p1780
aVspace_head_fk_anim
p1781
aVspace_chest_ik_anim
p1782
aaI01
aF0
aF0
aF0
aF0
aF-0
aF0
aF1
aF1
aF1
aF0
aF0
aF0
aF1
aa(lp1783
Vik_wrist_r_anim_space_switcher
p1784
a(lp1785
Vvisibility
p1786
aVtranslateX
p1787
aVtranslateY
p1788
aVtranslateZ
p1789
aVrotateX
p1790
aVrotateY
p1791
aVrotateZ
p1792
aVscaleX
p1793
aVscaleY
p1794
aVscaleZ
p1795
aVspace_world
p1796
aVspace_body_anim
p1797
aVspace_head_fk_anim
p1798
aVspace_chest_ik_anim
p1799
aaI01
aF0
aF0
aF0
aF0
aF-0
aF0
aF1
aF1
aF1
aF0
aF0
aF0
aF1
aa(lp1800
Vl_global_ik_anim_space_switcher
p1801
a(lp1802
Vvisibility
p1803
aVtranslateX
p1804
aVtranslateY
p1805
aVtranslateZ
p1806
aVrotateX
p1807
aVrotateY
p1808
aVrotateZ
p1809
aVscaleX
p1810
aVscaleY
p1811
aVscaleZ
p1812
aVspace_world
p1813
aaI01
aF0
aF0
aF0
aF0
aF0
aF0
aF1
aF1
aF1
aF0
aa(lp1814
Vmaster_anim_space_switcher
p1815
a(lp1816
Vvisibility
p1817
aVtranslateX
p1818
aVtranslateY
p1819
aVtranslateZ
p1820
aVrotateX
p1821
aVrotateY
p1822
aVrotateZ
p1823
aVscaleX
p1824
aVscaleY
p1825
aVscaleZ
p1826
aVspace_world
p1827
aaI01
aF0
aF0
aF0
aF0
aF0
aF0
aF1
aF1
aF1
aF0
aa(lp1828
Vr_global_ik_anim_space_switcher
p1829
a(lp1830
Vvisibility
p1831
aVtranslateX
p1832
aVtranslateY
p1833
aVtranslateZ
p1834
aVrotateX
p1835
aVrotateY
p1836
aVrotateZ
p1837
aVscaleX
p1838
aVscaleY
p1839
aVscaleZ
p1840
aVspace_world
p1841
aaI01
aF0
aF0
aF0
aF0
aF0
aF0
aF1
aF1
aF1
aF0
aa(lp1842
Vspine_01_space_switcher
p1843
a(lp1844
Vvisibility
p1845
aVtranslateX
p1846
aVtranslateY
p1847
aVtranslateZ
p1848
aVrotateX
p1849
aVrotateY
p1850
aVrotateZ
p1851
aVscaleX
p1852
aVscaleY
p1853
aVscaleZ
p1854
aVspace_world
p1855
aaI01
aF0
aF0
aF1.1102230246251565e-16
aF0
aF-5.649800061504203e-30
aF0
aF1
aF1
aF1
aF0
aa(lp1856
Vweapon_l_anim_space_switcher
p1857
a(lp1858
Vvisibility
p1859
aVtranslateX
p1860
aVtranslateY
p1861
aVtranslateZ
p1862
aVrotateX
p1863
aVrotateY
p1864
aVrotateZ
p1865
aVscaleX
p1866
aVscaleY
p1867
aVscaleZ
p1868
aVspace_world
p1869
aaI01
aF0
aF-7.1054273576010019e-15
aF-1.4210854715202004e-14
aF-1.5902773407317584e-15
aF-0
aF0
aF1
aF1
aF1.0000000000000002
aF0
aa(lp1870
Vweapon_r_anim_space_switcher
p1871
a(lp1872
Vvisibility
p1873
aVtranslateX
p1874
aVtranslateY
p1875
aVtranslateZ
p1876
aVrotateX
p1877
aVrotateY
p1878
aVrotateZ
p1879
aVscaleX
p1880
aVscaleY
p1881
aVscaleZ
p1882
aVspace_world
p1883
aaI01
aF0
aF-1.4210854715202004e-14
aF-1.4210854715202004e-14
aF3.1805546814635168e-15
aF-0
aF-4.7708320221952752e-15
aF1
aF1
aF0.99999999999999989
aF0
aa.