(lp1
(lp2
S'fk_clavicle_r_anim'
p3
a(lp4
VtranslateX
p5
aVtranslateY
p6
aVtranslateZ
p7
aVrotateX
p8
aVrotateY
p9
aVrotateZ
p10
aaF0
aF0
aF0
aF0
aF0
aF0
aa(lp11
S'fk_clavicle_l_anim'
p12
a(lp13
VtranslateX
p14
aVtranslateY
p15
aVtranslateZ
p16
aVrotateX
p17
aVrotateY
p18
aVrotateZ
p19
aaF0
aF0
aF0
aF0
aF0
aF0
aa(lp20
S'head_fk_anim'
p21
a(lp22
VtranslateX
p23
aVtranslateY
p24
aVtranslateZ
p25
aVrotateX
p26
aVrotateY
p27
aVrotateZ
p28
aVscaleX
p29
aVscaleY
p30
aVscaleZ
p31
aVfkOrientation
p32
aaF0
aF0
aF0
aF14.505940639210374
aF-6.2050932418788101
aF-21.874236732653745
aF1
aF1
aF1
aI3
aa(lp33
S'neck_01_fk_anim'
p34
a(lp35
VtranslateX
p36
aVtranslateY
p37
aVtranslateZ
p38
aVrotateX
p39
aVrotateY
p40
aVrotateZ
p41
aVscaleX
p42
aVscaleY
p43
aVscaleZ
p44
aVfkOrientation
p45
aaF0
aF0
aF0
aF0
aF0
aF0
aF1
aF1
aF1
aI0
aa(lp46
S'spine_01_anim'
p47
a(lp48
Vlength
p49
aVtranslateY
p50
aVtranslateZ
p51
aVrotateX
p52
aVrotateY
p53
aVrotateZ
p54
aaF0
aF0
aF0
aF0
aF0
aF0
aa(lp55
S'spine_02_anim'
p56
a(lp57
Vlength
p58
aVtranslateY
p59
aVtranslateZ
p60
aVrotateX
p61
aVrotateY
p62
aVrotateZ
p63
aaF0
aF0
aF0
aF0
aF0
aF0
aa(lp64
S'spine_03_anim'
p65
a(lp66
Vlength
p67
aVtranslateY
p68
aVtranslateZ
p69
aVrotateX
p70
aVrotateY
p71
aVrotateZ
p72
aaF0
aF0
aF0
aF0
aF0
aF0
aa(lp73
S'mid_ik_anim'
p74
a(lp75
VtranslateX
p76
aVtranslateY
p77
aVtranslateZ
p78
aVrotateX
p79
aVrotateY
p80
aVrotateZ
p81
aaF0
aF0
aF0
aF0
aF0
aF0
aa(lp82
S'chest_ik_anim'
p83
a(lp84
VtranslateX
p85
aVtranslateY
p86
aVtranslateZ
p87
aVrotateX
p88
aVrotateY
p89
aVrotateZ
p90
aVstretch
p91
aVsquash
p92
aVtwist_amount
p93
aVautoSpine
p94
aVrotationInfluence
p95
aaF-7.1783402764716584
aF-2.2204460492503131e-16
aF-1.5939117307066399e-15
aF14.588683643767483
aF-6.0043339065596264
aF-23.614028633061221
aF0
aF0
aF1
aF1
aF0.25
aa(lp96
S'body_anim'
p97
a(lp98
VtranslateX
p99
aVtranslateY
p100
aVtranslateZ
p101
aVrotateX
p102
aVrotateY
p103
aVrotateZ
p104
aaF0
aF0
aF0
aF0
aF0
aF0
aa(lp105
S'hip_anim'
p106
a(lp107
VtranslateX
p108
aVtranslateY
p109
aVtranslateZ
p110
aVrotateX
p111
aVrotateY
p112
aVrotateZ
p113
aVlCalfTwistCtrlVis
p114
aVrCalfTwistCtrlVis
p115
aVautoHips
p116
aaF-28.66749754305858
aF13.850973625084077
aF-0.65967609424418983
aF11.820545076166638
aF9.9392333795734899e-17
aF4.8830943255084787
aI00
aI00
aF0
aa(lp117
S'clavicle_l_anim'
p118
a(lp119
VtranslateX
p120
aVtranslateY
p121
aVtranslateZ
p122
aVautoShoulders
p123
aaF0
aF0
aF0
aF0
aa(lp124
S'clavicle_r_anim'
p125
a(lp126
VtranslateX
p127
aVtranslateY
p128
aVtranslateZ
p129
aVautoShoulders
p130
aaF0
aF0
aF0
aF0
aa(lp131
S'fk_arm_l_anim'
p132
a(lp133
VtranslateX
p134
aVtranslateY
p135
aVtranslateZ
p136
aVrotateX
p137
aVrotateY
p138
aVrotateZ
p139
aaF0
aF0
aF0
aF0
aF0
aF0
aa(lp140
S'fk_arm_r_anim'
p141
a(lp142
VtranslateX
p143
aVtranslateY
p144
aVtranslateZ
p145
aVrotateX
p146
aVrotateY
p147
aVrotateZ
p148
aaF0
aF0
aF0
aF0
aF0
aF0
aa(lp149
S'fk_elbow_l_anim'
p150
a(lp151
VtranslateX
p152
aVtranslateY
p153
aVtranslateZ
p154
aVrotateX
p155
aVrotateY
p156
aVrotateZ
p157
aaF0
aF0
aF0
aF0
aF0
aF0
aa(lp158
S'fk_elbow_r_anim'
p159
a(lp160
VtranslateX
p161
aVtranslateY
p162
aVtranslateZ
p163
aVrotateX
p164
aVrotateY
p165
aVrotateZ
p166
aaF0
aF0
aF0
aF0
aF0
aF0
aa(lp167
S'fk_wrist_l_anim'
p168
a(lp169
VtranslateX
p170
aVtranslateY
p171
aVtranslateZ
p172
aVrotateX
p173
aVrotateY
p174
aVrotateZ
p175
aaF0
aF0
aF0
aF0
aF0
aF0
aa(lp176
S'fk_wrist_r_anim'
p177
a(lp178
VtranslateX
p179
aVtranslateY
p180
aVtranslateZ
p181
aVrotateX
p182
aVrotateY
p183
aVrotateZ
p184
aaF0
aF0
aF0
aF0
aF0
aF0
aa(lp185
S'ik_elbow_l_anim'
p186
a(lp187
VtranslateX
p188
aVtranslateY
p189
aVtranslateZ
p190
aaF0
aF0
aF0
aa(lp191
S'ik_elbow_r_anim'
p192
a(lp193
VtranslateX
p194
aVtranslateY
p195
aVtranslateZ
p196
aaF0
aF0
aF0
aa(lp197
S'ik_wrist_l_anim'
p198
a(lp199
VtranslateX
p200
aVtranslateY
p201
aVtranslateZ
p202
aVrotateX
p203
aVrotateY
p204
aVrotateZ
p205
aVstretch
p206
aVsquash
p207
aVstretchBias
p208
aVside
p209
aVmid_bend
p210
aVmid_swivel
p211
aVtip_pivot
p212
aVtip_swivel
p213
aaF-105.76469066300236
aF17.378810600476598
aF-128.14720768153296
aF0
aF84.011336821169337
aF0
aF0
aF0
aF0
aF0
aF0
aF0
aF0
aF0
aa(lp214
S'ik_wrist_r_anim'
p215
a(lp216
VtranslateX
p217
aVtranslateY
p218
aVtranslateZ
p219
aVrotateX
p220
aVrotateY
p221
aVrotateZ
p222
aVstretch
p223
aVsquash
p224
aVstretchBias
p225
aVside
p226
aVmid_bend
p227
aVmid_swivel
p228
aVtip_pivot
p229
aVtip_swivel
p230
aaF114.12353418231291
aF-74.66028304152502
aF-128.33074224442583
aF66.754323735856673
aF-124.91015262489651
aF-70.595280097039534
aF0
aF0
aF0
aF0
aF0
aF0
aF0
aF0
aa(lp231
S'fk_thigh_l_anim'
p232
a(lp233
VrotateX
p234
aVrotateY
p235
aVrotateZ
p236
aaF-2.8207063870240999e-16
aF1.5530052155583578e-18
aF2.4848083448933725e-17
aa(lp237
S'fk_thigh_r_anim'
p238
a(lp239
VrotateX
p240
aVrotateY
p241
aVrotateZ
p242
aaF-5.8618667175380076e-16
aF-0
aF2.4848083448933731e-17
aa(lp243
S'fk_calf_l_anim'
p244
a(lp245
VrotateX
p246
aVrotateY
p247
aVrotateZ
p248
aaF0
aF0
aF0
aa(lp249
S'fk_calf_r_anim'
p250
a(lp251
VrotateX
p252
aVrotateY
p253
aVrotateZ
p254
aaF0
aF0
aF0
aa(lp255
S'fk_foot_l_anim'
p256
a(lp257
VrotateX
p258
aVrotateY
p259
aVrotateZ
p260
aaF0
aF0
aF0
aa(lp261
S'fk_foot_r_anim'
p262
a(lp263
VrotateX
p264
aVrotateY
p265
aVrotateZ
p266
aaF-3.7635228676863548e-44
aF-0
aF0
aa(lp267
S'ik_foot_anim_l'
p268
a(lp269
VtranslateX
p270
aVtranslateY
p271
aVtranslateZ
p272
aVrotateX
p273
aVrotateY
p274
aVrotateZ
p275
aVknee_twist
p276
aVstretch
p277
aVsquash
p278
aVtoeCtrlVis
p279
aVstretchBias
p280
aaF27.726576507948252
aF66.999208168621749
aF-3.5527136788005009e-15
aF0
aF0
aF32.538941509632863
aF12.9
aF0
aF0
aI00
aF0
aa(lp281
S'ik_foot_anim_r'
p282
a(lp283
VtranslateX
p284
aVtranslateY
p285
aVtranslateZ
p286
aVrotateX
p287
aVrotateY
p288
aVrotateZ
p289
aVknee_twist
p290
aVstretch
p291
aVsquash
p292
aVtoeCtrlVis
p293
aVstretchBias
p294
aaF-37.873818892791064
aF-77.25646006756854
aF3.907985046680551e-14
aF0
aF0
aF8.7300896268447961
aF19.400000000000002
aF0
aF0
aI00
aF0
aa(lp295
S'heel_ctrl_l'
p296
a(lp297
VrotateX
p298
aVrotateY
p299
aVrotateZ
p300
aVheelPivot
p301
aVballPivot
p302
aaF-8.1028144184583319e-14
aF-1.836273366876202e-14
aF0
aF0
aF0
aa(lp303
S'heel_ctrl_r'
p304
a(lp305
VrotateX
p306
aVrotateY
p307
aVrotateZ
p308
aVheelPivot
p309
aVballPivot
p310
aaF5.190289024634992e-15
aF-3.6029721000953902e-16
aF0
aF0
aF0
aa(lp311
S'toe_wiggle_ctrl_l'
p312
a(lp313
VrotateX
p314
aVrotateY
p315
aVrotateZ
p316
aaF0
aF1.765562493485407e-31
aF0
aa(lp317
S'toe_wiggle_ctrl_r'
p318
a(lp319
VrotateX
p320
aVrotateY
p321
aVrotateZ
p322
aaF0
aF1.765562493485407e-31
aF0
aa(lp323
S'toe_tip_ctrl_l'
p324
a(lp325
VrotateX
p326
aVrotateY
p327
aVrotateZ
p328
aaF0
aF1.765562493485407e-31
aF0
aa(lp329
S'toe_tip_ctrl_r'
p330
a(lp331
VrotateX
p332
aVrotateY
p333
aVrotateZ
p334
aaF0
aF1.765562493485407e-31
aF0
aa(lp335
S'master_anim'
p336
a(lp337
VtranslateX
p338
aVtranslateY
p339
aVtranslateZ
p340
aVrotateX
p341
aVrotateY
p342
aVrotateZ
p343
aaF0
aF0
aF0
aF0
aF0
aF0
aa(lp344
S'offset_anim'
p345
a(lp346
VtranslateX
p347
aVtranslateY
p348
aVtranslateZ
p349
aVrotateX
p350
aVrotateY
p351
aVrotateZ
p352
aaF0
aF0
aF0
aF0
aF0
aF0
aa(lp353
S'root_anim'
p354
a(lp355
VtranslateX
p356
aVtranslateY
p357
aVtranslateZ
p358
aVrotateX
p359
aVrotateY
p360
aVrotateZ
p361
aaF0
aF0
aF0
aF0
aF0
aF0
aa(lp362
S'upperarm_l_twist_anim'
p363
a(lp364
VtranslateX
p365
aVtranslateY
p366
aVtranslateZ
p367
aVrotateX
p368
aVrotateY
p369
aVrotateZ
p370
aVscaleX
p371
aVscaleY
p372
aVscaleZ
p373
aaF7.1054273576010019e-15
aF0
aF0
aF5.963540027744092e-16
aF1.4908850069360235e-16
aF5.9790700798996773e-17
aF1
aF1.0000000000000002
aF1
aa(lp374
S'upperarm_r_twist_anim'
p375
a(lp376
VtranslateX
p377
aVtranslateY
p378
aVtranslateZ
p379
aVrotateX
p380
aVrotateY
p381
aVrotateZ
p382
aVscaleX
p383
aVscaleY
p384
aVscaleZ
p385
aaF0
aF0
aF0
aF-1.9878466759146985e-16
aF-4.9696166897867449e-17
aF-3.1060104311167156e-18
aF1
aF0.99999999999999989
aF0.99999999999999989
aa(lp386
S'lowerarm_l_twist_anim'
p387
a(lp388
VtranslateX
p389
aVtranslateY
p390
aVtranslateZ
p391
aVrotateX
p392
aVrotateY
p393
aVrotateZ
p394
aaF0
aF0
aF0
aF0
aF0
aF0
aa(lp395
S'lowerarm_r_twist_anim'
p396
a(lp397
VtranslateX
p398
aVtranslateY
p399
aVtranslateZ
p400
aVrotateX
p401
aVrotateY
p402
aVrotateZ
p403
aaF0
aF0
aF0
aF0
aF0
aF0
aa(lp404
S'l_thigh_twist_01_anim'
p405
a(lp406
VtranslateX
p407
aVtranslateY
p408
aVtranslateZ
p409
aVrotateX
p410
aVrotateY
p411
aVrotateZ
p412
aVscaleX
p413
aVscaleY
p414
aVscaleZ
p415
aaF-2.8421709430404007e-14
aF0
aF3.5527136788005009e-15
aF-1.7635021085735993e-12
aF-1.2714453699776276e-14
aF4.7211358552974075e-16
aF1
aF1
aF0.99999999999999978
aa(lp416
S'r_thigh_twist_01_anim'
p417
a(lp418
VtranslateX
p419
aVtranslateY
p420
aVtranslateZ
p421
aVrotateX
p422
aVrotateY
p423
aVrotateZ
p424
aVscaleX
p425
aVscaleY
p426
aVscaleZ
p427
aaF0
aF0
aF-3.5527136788005009e-15
aF-1.836958897350339e-12
aF-1.2714453699776277e-14
aF5.2180975242760834e-16
aF0.99999999999999978
aF1
aF0.99999999999999978
aa(lp428
S'pinky_finger_fk_ctrl_1_l'
p429
a(lp430
VtranslateX
p431
aVtranslateY
p432
aVtranslateZ
p433
aVrotateX
p434
aVrotateY
p435
aVrotateZ
p436
aVsticky
p437
aaF0
aF0
aF0
aF0
aF0
aF0
aF0
aa(lp438
S'pinky_finger_fk_ctrl_1_r'
p439
a(lp440
VtranslateX
p441
aVtranslateY
p442
aVtranslateZ
p443
aVrotateX
p444
aVrotateY
p445
aVrotateZ
p446
aVsticky
p447
aaF0
aF0
aF0
aF0
aF0
aF0
aF0
aa(lp448
S'pinky_finger_fk_ctrl_2_l'
p449
a(lp450
VtranslateX
p451
aVtranslateY
p452
aVtranslateZ
p453
aVrotateX
p454
aVrotateY
p455
aVrotateZ
p456
aaF0
aF0
aF0
aF0
aF0
aF0
aa(lp457
S'pinky_finger_fk_ctrl_2_r'
p458
a(lp459
VtranslateX
p460
aVtranslateY
p461
aVtranslateZ
p462
aVrotateX
p463
aVrotateY
p464
aVrotateZ
p465
aaF0
aF0
aF0
aF0
aF0
aF0
aa(lp466
S'pinky_finger_fk_ctrl_3_l'
p467
a(lp468
VtranslateX
p469
aVtranslateY
p470
aVtranslateZ
p471
aVrotateX
p472
aVrotateY
p473
aVrotateZ
p474
aaF0
aF0
aF0
aF0
aF0
aF0
aa(lp475
S'pinky_finger_fk_ctrl_3_r'
p476
a(lp477
VtranslateX
p478
aVtranslateY
p479
aVtranslateZ
p480
aVrotateX
p481
aVrotateY
p482
aVrotateZ
p483
aaF0
aF0
aF0
aF0
aF0
aF0
aa(lp484
S'ring_finger_fk_ctrl_1_l'
p485
a(lp486
VtranslateX
p487
aVtranslateY
p488
aVtranslateZ
p489
aVrotateX
p490
aVrotateY
p491
aVrotateZ
p492
aVsticky
p493
aaF0
aF0
aF0
aF0
aF0
aF0
aF0
aa(lp494
S'ring_finger_fk_ctrl_1_r'
p495
a(lp496
VtranslateX
p497
aVtranslateY
p498
aVtranslateZ
p499
aVrotateX
p500
aVrotateY
p501
aVrotateZ
p502
aVsticky
p503
aaF0
aF0
aF0
aF0
aF0
aF0
aF0
aa(lp504
S'ring_finger_fk_ctrl_2_l'
p505
a(lp506
VtranslateX
p507
aVtranslateY
p508
aVtranslateZ
p509
aVrotateX
p510
aVrotateY
p511
aVrotateZ
p512
aaF0
aF0
aF0
aF0
aF0
aF0
aa(lp513
S'ring_finger_fk_ctrl_2_r'
p514
a(lp515
VtranslateX
p516
aVtranslateY
p517
aVtranslateZ
p518
aVrotateX
p519
aVrotateY
p520
aVrotateZ
p521
aaF0
aF0
aF0
aF0
aF0
aF0
aa(lp522
S'ring_finger_fk_ctrl_3_l'
p523
a(lp524
VtranslateX
p525
aVtranslateY
p526
aVtranslateZ
p527
aVrotateX
p528
aVrotateY
p529
aVrotateZ
p530
aaF0
aF0
aF0
aF0
aF0
aF0
aa(lp531
S'ring_finger_fk_ctrl_3_r'
p532
a(lp533
VtranslateX
p534
aVtranslateY
p535
aVtranslateZ
p536
aVrotateX
p537
aVrotateY
p538
aVrotateZ
p539
aaF0
aF0
aF0
aF0
aF0
aF0
aa(lp540
S'middle_finger_fk_ctrl_1_l'
p541
a(lp542
VtranslateX
p543
aVtranslateY
p544
aVtranslateZ
p545
aVrotateX
p546
aVrotateY
p547
aVrotateZ
p548
aVsticky
p549
aaF0
aF0
aF0
aF0
aF0
aF0
aF0
aa(lp550
S'middle_finger_fk_ctrl_1_r'
p551
a(lp552
VtranslateX
p553
aVtranslateY
p554
aVtranslateZ
p555
aVrotateX
p556
aVrotateY
p557
aVrotateZ
p558
aVsticky
p559
aaF0
aF0
aF0
aF0
aF0
aF0
aF0
aa(lp560
S'middle_finger_fk_ctrl_2_l'
p561
a(lp562
VtranslateX
p563
aVtranslateY
p564
aVtranslateZ
p565
aVrotateX
p566
aVrotateY
p567
aVrotateZ
p568
aaF0
aF0
aF0
aF0
aF0
aF0
aa(lp569
S'middle_finger_fk_ctrl_2_r'
p570
a(lp571
VtranslateX
p572
aVtranslateY
p573
aVtranslateZ
p574
aVrotateX
p575
aVrotateY
p576
aVrotateZ
p577
aaF0
aF0
aF0
aF0
aF0
aF0
aa(lp578
S'middle_finger_fk_ctrl_3_l'
p579
a(lp580
VtranslateX
p581
aVtranslateY
p582
aVtranslateZ
p583
aVrotateX
p584
aVrotateY
p585
aVrotateZ
p586
aaF0
aF0
aF0
aF0
aF0
aF0
aa(lp587
S'middle_finger_fk_ctrl_3_r'
p588
a(lp589
VtranslateX
p590
aVtranslateY
p591
aVtranslateZ
p592
aVrotateX
p593
aVrotateY
p594
aVrotateZ
p595
aaF0
aF0
aF0
aF0
aF0
aF0
aa(lp596
S'index_finger_fk_ctrl_1_l'
p597
a(lp598
VtranslateX
p599
aVtranslateY
p600
aVtranslateZ
p601
aVrotateX
p602
aVrotateY
p603
aVrotateZ
p604
aVsticky
p605
aaF0
aF0
aF0
aF0
aF0
aF0
aF0
aa(lp606
S'index_finger_fk_ctrl_1_r'
p607
a(lp608
VtranslateX
p609
aVtranslateY
p610
aVtranslateZ
p611
aVrotateX
p612
aVrotateY
p613
aVrotateZ
p614
aVsticky
p615
aaF0
aF0
aF0
aF0
aF0
aF0
aF0
aa(lp616
S'index_finger_fk_ctrl_2_l'
p617
a(lp618
VtranslateX
p619
aVtranslateY
p620
aVtranslateZ
p621
aVrotateX
p622
aVrotateY
p623
aVrotateZ
p624
aaF0
aF0
aF0
aF0
aF0
aF0
aa(lp625
S'index_finger_fk_ctrl_2_r'
p626
a(lp627
VtranslateX
p628
aVtranslateY
p629
aVtranslateZ
p630
aVrotateX
p631
aVrotateY
p632
aVrotateZ
p633
aaF0
aF0
aF0
aF0
aF0
aF0
aa(lp634
S'index_finger_fk_ctrl_3_l'
p635
a(lp636
VtranslateX
p637
aVtranslateY
p638
aVtranslateZ
p639
aVrotateX
p640
aVrotateY
p641
aVrotateZ
p642
aaF0
aF0
aF0
aF0
aF0
aF0
aa(lp643
S'index_finger_fk_ctrl_3_r'
p644
a(lp645
VtranslateX
p646
aVtranslateY
p647
aVtranslateZ
p648
aVrotateX
p649
aVrotateY
p650
aVrotateZ
p651
aaF0
aF0
aF0
aF0
aF0
aF0
aa(lp652
S'thumb_finger_fk_ctrl_1_l'
p653
a(lp654
VtranslateX
p655
aVtranslateY
p656
aVtranslateZ
p657
aVrotateX
p658
aVrotateY
p659
aVrotateZ
p660
aVsticky
p661
aaF0
aF0
aF0
aF0
aF0
aF0
aF0
aa(lp662
S'thumb_finger_fk_ctrl_1_r'
p663
a(lp664
VtranslateX
p665
aVtranslateY
p666
aVtranslateZ
p667
aVrotateX
p668
aVrotateY
p669
aVrotateZ
p670
aVsticky
p671
aaF0
aF0
aF0
aF0
aF0
aF0
aF0
aa(lp672
S'thumb_finger_fk_ctrl_2_l'
p673
a(lp674
VtranslateX
p675
aVtranslateY
p676
aVtranslateZ
p677
aVrotateX
p678
aVrotateY
p679
aVrotateZ
p680
aaF0
aF0
aF0
aF0
aF0
aF0
aa(lp681
S'thumb_finger_fk_ctrl_2_r'
p682
a(lp683
VtranslateX
p684
aVtranslateY
p685
aVtranslateZ
p686
aVrotateX
p687
aVrotateY
p688
aVrotateZ
p689
aaF0
aF0
aF0
aF0
aF0
aF0
aa(lp690
S'thumb_finger_fk_ctrl_3_l'
p691
a(lp692
VtranslateX
p693
aVtranslateY
p694
aVtranslateZ
p695
aVrotateX
p696
aVrotateY
p697
aVrotateZ
p698
aaF0
aF0
aF0
aF0
aF0
aF0
aa(lp699
S'thumb_finger_fk_ctrl_3_r'
p700
a(lp701
VtranslateX
p702
aVtranslateY
p703
aVtranslateZ
p704
aVrotateX
p705
aVrotateY
p706
aVrotateZ
p707
aaF0
aF0
aF0
aF0
aF0
aF0
aa(lp708
S'index_l_ik_anim'
p709
a(lp710
VtranslateX
p711
aVtranslateY
p712
aVtranslateZ
p713
aVrotateX
p714
aVrotateY
p715
aVrotateZ
p716
aVpoleVectorVis
p717
aaF0
aF0
aF0
aF0
aF0
aF0
aF0
aa(lp718
S'index_r_ik_anim'
p719
a(lp720
VtranslateX
p721
aVtranslateY
p722
aVtranslateZ
p723
aVrotateX
p724
aVrotateY
p725
aVrotateZ
p726
aVpoleVectorVis
p727
aaF0
aF0
aF0
aF0
aF0
aF0
aF0
aa(lp728
S'middle_l_ik_anim'
p729
a(lp730
VtranslateX
p731
aVtranslateY
p732
aVtranslateZ
p733
aVrotateX
p734
aVrotateY
p735
aVrotateZ
p736
aVpoleVectorVis
p737
aaF0
aF0
aF0
aF0
aF0
aF0
aF0
aa(lp738
S'middle_r_ik_anim'
p739
a(lp740
VtranslateX
p741
aVtranslateY
p742
aVtranslateZ
p743
aVrotateX
p744
aVrotateY
p745
aVrotateZ
p746
aVpoleVectorVis
p747
aaF0
aF0
aF0
aF0
aF0
aF0
aF0
aa(lp748
S'ring_l_ik_anim'
p749
a(lp750
VtranslateX
p751
aVtranslateY
p752
aVtranslateZ
p753
aVrotateX
p754
aVrotateY
p755
aVrotateZ
p756
aVpoleVectorVis
p757
aaF0
aF0
aF0
aF0
aF0
aF0
aF0
aa(lp758
S'ring_r_ik_anim'
p759
a(lp760
VtranslateX
p761
aVtranslateY
p762
aVtranslateZ
p763
aVrotateX
p764
aVrotateY
p765
aVrotateZ
p766
aVpoleVectorVis
p767
aaF0
aF0
aF0
aF0
aF0
aF0
aF0
aa(lp768
S'pinky_l_ik_anim'
p769
a(lp770
VtranslateX
p771
aVtranslateY
p772
aVtranslateZ
p773
aVrotateX
p774
aVrotateY
p775
aVrotateZ
p776
aVpoleVectorVis
p777
aaF0
aF0
aF0
aF0
aF0
aF0
aF0
aa(lp778
S'pinky_r_ik_anim'
p779
a(lp780
VtranslateX
p781
aVtranslateY
p782
aVtranslateZ
p783
aVrotateX
p784
aVrotateY
p785
aVrotateZ
p786
aVpoleVectorVis
p787
aaF0
aF0
aF0
aF0
aF0
aF0
aF0
aa(lp788
S'thumb_l_ik_anim'
p789
a(lp790
VtranslateX
p791
aVtranslateY
p792
aVtranslateZ
p793
aVrotateX
p794
aVrotateY
p795
aVrotateZ
p796
aVpoleVectorVis
p797
aaF0
aF0
aF0
aF0
aF0
aF0
aF0
aa(lp798
S'thumb_r_ik_anim'
p799
a(lp800
VtranslateX
p801
aVtranslateY
p802
aVtranslateZ
p803
aVrotateX
p804
aVrotateY
p805
aVrotateZ
p806
aVpoleVectorVis
p807
aaF0
aF0
aF0
aF0
aF0
aF0
aF0
aa(lp808
S'index_l_poleVector'
p809
a(lp810
VtranslateX
p811
aVtranslateY
p812
aVtranslateZ
p813
aVrotateX
p814
aVrotateY
p815
aVrotateZ
p816
aaF0
aF0
aF0
aF0
aF0
aF0
aa(lp817
S'index_r_poleVector'
p818
a(lp819
VtranslateX
p820
aVtranslateY
p821
aVtranslateZ
p822
aVrotateX
p823
aVrotateY
p824
aVrotateZ
p825
aaF0
aF0
aF0
aF0
aF0
aF0
aa(lp826
S'middle_l_poleVector'
p827
a(lp828
VtranslateX
p829
aVtranslateY
p830
aVtranslateZ
p831
aVrotateX
p832
aVrotateY
p833
aVrotateZ
p834
aaF0
aF0
aF0
aF0
aF0
aF0
aa(lp835
S'middle_r_poleVector'
p836
a(lp837
VtranslateX
p838
aVtranslateY
p839
aVtranslateZ
p840
aVrotateX
p841
aVrotateY
p842
aVrotateZ
p843
aaF0
aF0
aF0
aF0
aF0
aF0
aa(lp844
S'ring_l_poleVector'
p845
a(lp846
VtranslateX
p847
aVtranslateY
p848
aVtranslateZ
p849
aVrotateX
p850
aVrotateY
p851
aVrotateZ
p852
aaF0
aF0
aF0
aF0
aF0
aF0
aa(lp853
S'ring_r_poleVector'
p854
a(lp855
VtranslateX
p856
aVtranslateY
p857
aVtranslateZ
p858
aVrotateX
p859
aVrotateY
p860
aVrotateZ
p861
aaF0
aF0
aF0
aF0
aF0
aF0
aa(lp862
S'pinky_l_poleVector'
p863
a(lp864
VtranslateX
p865
aVtranslateY
p866
aVtranslateZ
p867
aVrotateX
p868
aVrotateY
p869
aVrotateZ
p870
aaF0
aF0
aF0
aF0
aF0
aF0
aa(lp871
S'pinky_r_poleVector'
p872
a(lp873
VtranslateX
p874
aVtranslateY
p875
aVtranslateZ
p876
aVrotateX
p877
aVrotateY
p878
aVrotateZ
p879
aaF0
aF0
aF0
aF0
aF0
aF0
aa(lp880
S'thumb_l_poleVector'
p881
a(lp882
VtranslateX
p883
aVtranslateY
p884
aVtranslateZ
p885
aVrotateX
p886
aVrotateY
p887
aVrotateZ
p888
aaF0
aF0
aF0
aF0
aF0
aF0
aa(lp889
S'thumb_r_poleVector'
p890
a(lp891
VtranslateX
p892
aVtranslateY
p893
aVtranslateZ
p894
aVrotateX
p895
aVrotateY
p896
aVrotateZ
p897
aaF0
aF0
aF0
aF0
aF0
aF0
aa(lp898
S'l_global_ik_anim'
p899
a(lp900
VtranslateX
p901
aVtranslateY
p902
aVtranslateZ
p903
aVrotateX
p904
aVrotateY
p905
aVrotateZ
p906
aaF0
aF0
aF0
aF0
aF0
aF0
aa(lp907
S'r_global_ik_anim'
p908
a(lp909
VtranslateX
p910
aVtranslateY
p911
aVtranslateZ
p912
aVrotateX
p913
aVrotateY
p914
aVrotateZ
p915
aaF0
aF0
aF0
aF-0.045602862671486624
aF-0.51614848292477178
aF-1.1186014347011912
aa(lp916
S'Rig_Settings'
p917
a(lp918
Vspine_ik
p919
aVspine_fk
p920
aVlLegMode
p921
aVlThighTwistAmount
p922
aVllegTwistCtrlVis
p923
aVlCalfTwistAmount
p924
aVrLegMode
p925
aVrThighTwistAmount
p926
aVrlegTwistCtrlVis
p927
aVrCalfTwistAmount
p928
aVlFkArmOrient
p929
aVlArmMode
p930
aVlClavMode
p931
aVlUpperarmTwistAmount
p932
aVltwistCtrlVis
p933
aVltwistCtrlVisLower
p934
aVlForearmTwistAmount
p935
aVrFkArmOrient
p936
aVrArmMode
p937
aVrClavMode
p938
aVrUpperarmTwistAmount
p939
aVrtwistCtrlVis
p940
aVrtwistCtrlVisLower
p941
aVrForearmTwistAmount
p942
aaF1
aF0
aI1
aF1
aI00
aF0.5
aI1
aF1
aI00
aF0.5
aI0
aI1
aI1
aF0.90000000000000002
aI00
aI00
aF0.5
aI0
aI1
aI1
aF0.90000000000000002
aI00
aI00
aF0.5
aa(lp943
S'calf_l_twist_anim'
p944
a(lp945
VtranslateX
p946
aVtranslateY
p947
aVtranslateZ
p948
aVrotateX
p949
aVrotateY
p950
aVrotateZ
p951
aaF0
aF0
aF0
aF0
aF0
aF0
aa(lp952
S'calf_r_twist_anim'
p953
a(lp954
VtranslateX
p955
aVtranslateY
p956
aVtranslateZ
p957
aVrotateX
p958
aVrotateY
p959
aVrotateZ
p960
aaF0
aF0
aF0
aF0
aF0
aF0
aa(lp961
Vbody_anim_space_switcher
p962
a(lp963
Vvisibility
p964
aVtranslateX
p965
aVtranslateY
p966
aVtranslateZ
p967
aVrotateX
p968
aVrotateY
p969
aVrotateZ
p970
aVscaleX
p971
aVscaleY
p972
aVscaleZ
p973
aVspace_world
p974
aaI01
aF0
aF0
aF0
aF0
aF0
aF0
aF1
aF1
aF1
aF0
aa(lp975
Vchest_ik_anim_space_switcher
p976
a(lp977
Vvisibility
p978
aVtranslateX
p979
aVtranslateY
p980
aVtranslateZ
p981
aVrotateX
p982
aVrotateY
p983
aVrotateZ
p984
aVscaleX
p985
aVscaleY
p986
aVscaleZ
p987
aVspace_world
p988
aVspace_chest_ik_world_aligned
p989
aaI01
aF0
aF0
aF-5.0487097934144756e-29
aF0
aF0
aF0
aF1
aF1
aF1
aF0
aF1
aa(lp990
Vik_elbow_l_anim_space_switcher
p991
a(lp992
Vvisibility
p993
aVtranslateX
p994
aVtranslateY
p995
aVtranslateZ
p996
aVrotateX
p997
aVrotateY
p998
aVrotateZ
p999
aVscaleX
p1000
aVscaleY
p1001
aVscaleZ
p1002
aVspace_world
p1003
aVspace_body_anim
p1004
aVspace_chest_ik_anim
p1005
aaI01
aF0
aF0
aF0
aF0
aF0
aF0
aF1
aF1
aF1
aF0
aF0
aF0
aa(lp1006
Vik_elbow_r_anim_space_switcher
p1007
a(lp1008
Vvisibility
p1009
aVtranslateX
p1010
aVtranslateY
p1011
aVtranslateZ
p1012
aVrotateX
p1013
aVrotateY
p1014
aVrotateZ
p1015
aVscaleX
p1016
aVscaleY
p1017
aVscaleZ
p1018
aVspace_world
p1019
aVspace_body_anim
p1020
aVspace_chest_ik_anim
p1021
aaI01
aF0
aF0
aF0
aF0
aF0
aF0
aF1
aF1
aF1
aF0
aF0
aF0
aa(lp1022
Vik_foot_anim_l_space_switcher
p1023
a(lp1024
Vvisibility
p1025
aVtranslateX
p1026
aVtranslateY
p1027
aVtranslateZ
p1028
aVrotateX
p1029
aVrotateY
p1030
aVrotateZ
p1031
aVscaleX
p1032
aVscaleY
p1033
aVscaleZ
p1034
aVspace_world
p1035
aVspace_body_anim
p1036
aaI01
aF0
aF0
aF0
aF0
aF0
aF0
aF1
aF1
aF1
aF0
aF0
aa(lp1037
Vik_foot_anim_r_space_switcher
p1038
a(lp1039
Vvisibility
p1040
aVtranslateX
p1041
aVtranslateY
p1042
aVtranslateZ
p1043
aVrotateX
p1044
aVrotateY
p1045
aVrotateZ
p1046
aVscaleX
p1047
aVscaleY
p1048
aVscaleZ
p1049
aVspace_world
p1050
aVspace_body_anim
p1051
aaI01
aF0
aF0
aF0
aF0
aF0
aF0
aF1
aF1
aF1
aF0
aF0
aa(lp1052
Vik_wrist_l_anim_space_switcher
p1053
a(lp1054
Vvisibility
p1055
aVtranslateX
p1056
aVtranslateY
p1057
aVtranslateZ
p1058
aVrotateX
p1059
aVrotateY
p1060
aVrotateZ
p1061
aVscaleX
p1062
aVscaleY
p1063
aVscaleZ
p1064
aVspace_world
p1065
aVspace_body_anim
p1066
aVspace_head_fk_anim
p1067
aVspace_chest_ik_anim
p1068
aaI01
aF0
aF0
aF0
aF0
aF0
aF0
aF1
aF1
aF1
aF0
aF0
aF0
aF0
aa(lp1069
Vik_wrist_r_anim_space_switcher
p1070
a(lp1071
Vvisibility
p1072
aVtranslateX
p1073
aVtranslateY
p1074
aVtranslateZ
p1075
aVrotateX
p1076
aVrotateY
p1077
aVrotateZ
p1078
aVscaleX
p1079
aVscaleY
p1080
aVscaleZ
p1081
aVspace_world
p1082
aVspace_body_anim
p1083
aVspace_head_fk_anim
p1084
aVspace_chest_ik_anim
p1085
aaI01
aF0
aF0
aF0
aF0
aF0
aF0
aF1
aF1
aF1
aF0
aF0
aF0
aF0
aa(lp1086
Vl_global_ik_anim_space_switcher
p1087
a(lp1088
Vvisibility
p1089
aVtranslateX
p1090
aVtranslateY
p1091
aVtranslateZ
p1092
aVrotateX
p1093
aVrotateY
p1094
aVrotateZ
p1095
aVscaleX
p1096
aVscaleY
p1097
aVscaleZ
p1098
aVspace_world
p1099
aaI01
aF0
aF0
aF0
aF0
aF0
aF0
aF1
aF1
aF1
aF0
aa(lp1100
Vmaster_anim_space_switcher
p1101
a(lp1102
Vvisibility
p1103
aVtranslateX
p1104
aVtranslateY
p1105
aVtranslateZ
p1106
aVrotateX
p1107
aVrotateY
p1108
aVrotateZ
p1109
aVscaleX
p1110
aVscaleY
p1111
aVscaleZ
p1112
aVspace_world
p1113
aaI01
aF0
aF0
aF0
aF0
aF0
aF0
aF1
aF1
aF1
aF0
aa(lp1114
Vr_global_ik_anim_space_switcher
p1115
a(lp1116
Vvisibility
p1117
aVtranslateX
p1118
aVtranslateY
p1119
aVtranslateZ
p1120
aVrotateX
p1121
aVrotateY
p1122
aVrotateZ
p1123
aVscaleX
p1124
aVscaleY
p1125
aVscaleZ
p1126
aVspace_world
p1127
aaI01
aF0
aF0
aF0
aF0
aF0
aF0
aF1
aF1
aF1
aF0
aa(lp1128
Vspine_01_space_switcher
p1129
a(lp1130
Vvisibility
p1131
aVtranslateX
p1132
aVtranslateY
p1133
aVtranslateZ
p1134
aVrotateX
p1135
aVrotateY
p1136
aVrotateZ
p1137
aVscaleX
p1138
aVscaleY
p1139
aVscaleZ
p1140
aVspace_world
p1141
aaI01
aF0
aF0
aF2.5243548967072378e-29
aF0
aF-5.649800061504203e-30
aF0
aF1
aF1
aF1
aF0
aa.