(lp1
(lp2
S'fk_clavicle_r_anim'
p3
a(lp4
VtranslateX
p5
aVtranslateY
p6
aVtranslateZ
p7
aVrotateX
p8
aVrotateY
p9
aVrotateZ
p10
aaF0
aF0
aF0
aF0
aF0
aF0
aa(lp11
S'fk_clavicle_l_anim'
p12
a(lp13
VtranslateX
p14
aVtranslateY
p15
aVtranslateZ
p16
aVrotateX
p17
aVrotateY
p18
aVrotateZ
p19
aaF0
aF0
aF0
aF0
aF0
aF0
aa(lp20
S'head_fk_anim'
p21
a(lp22
VtranslateX
p23
aVtranslateY
p24
aVtranslateZ
p25
aVrotateX
p26
aVrotateY
p27
aVrotateZ
p28
aVscaleX
p29
aVscaleY
p30
aVscaleZ
p31
aVfkOrientation
p32
aaF0
aF0
aF0
aF-28.241641471846219
aF-0.48405048360175301
aF-14.415241435764488
aF1
aF1
aF1
aI3
aa(lp33
S'neck_01_fk_anim'
p34
a(lp35
VtranslateX
p36
aVtranslateY
p37
aVtranslateZ
p38
aVrotateX
p39
aVrotateY
p40
aVrotateZ
p41
aVscaleX
p42
aVscaleY
p43
aVscaleZ
p44
aVfkOrientation
p45
aaF0
aF0
aF0
aF0
aF0
aF0
aF1
aF1
aF1
aI0
aa(lp46
S'spine_01_anim'
p47
a(lp48
Vlength
p49
aVtranslateY
p50
aVtranslateZ
p51
aVrotateX
p52
aVrotateY
p53
aVrotateZ
p54
aaF0
aF0
aF0
aF0
aF0
aF0
aa(lp55
S'spine_02_anim'
p56
a(lp57
Vlength
p58
aVtranslateY
p59
aVtranslateZ
p60
aVrotateX
p61
aVrotateY
p62
aVrotateZ
p63
aaF0
aF0
aF0
aF0
aF0
aF0
aa(lp64
S'spine_03_anim'
p65
a(lp66
Vlength
p67
aVtranslateY
p68
aVtranslateZ
p69
aVrotateX
p70
aVrotateY
p71
aVrotateZ
p72
aaF0
aF0
aF0
aF0
aF0
aF0
aa(lp73
S'mid_ik_anim'
p74
a(lp75
VtranslateX
p76
aVtranslateY
p77
aVtranslateZ
p78
aVrotateX
p79
aVrotateY
p80
aVrotateZ
p81
aaF-0.0058668778194787699
aF7.2211394378222034
aF-0.75736490456899952
aF0
aF0
aF0
aa(lp82
S'chest_ik_anim'
p83
a(lp84
VtranslateX
p85
aVtranslateY
p86
aVtranslateZ
p87
aVrotateX
p88
aVrotateY
p89
aVrotateZ
p90
aVstretch
p91
aVsquash
p92
aVtwist_amount
p93
aVautoSpine
p94
aVrotationInfluence
p95
aaF0.0011405736262089959
aF-1.403854221045332
aF0.14723852479317728
aF24.381414507825856
aF-7.1034670544363658
aF-30.521583478939586
aF0
aF0
aF1
aF1
aF0
aa(lp96
S'body_anim'
p97
a(lp98
VtranslateX
p99
aVtranslateY
p100
aVtranslateZ
p101
aVrotateX
p102
aVrotateY
p103
aVrotateZ
p104
aaF-23.934474964013869
aF-8.8817841970012523e-16
aF-2.4869040681801735
aF5.9874327182767884
aF-0.23307944903316336
aF-0.022104565329723744
aa(lp105
S'hip_anim'
p106
a(lp107
VtranslateX
p108
aVtranslateY
p109
aVtranslateZ
p110
aVrotateX
p111
aVrotateY
p112
aVrotateZ
p113
aVlCalfTwistCtrlVis
p114
aVrCalfTwistCtrlVis
p115
aVautoHips
p116
aaF-0.12108967382004959
aF24.553963959447287
aF-5.4961007285601262
aF1.6116350848842571
aF-1.5315844660960469
aF-3.2587503926003238
aI00
aI00
aF0
aa(lp117
S'clavicle_l_anim'
p118
a(lp119
VtranslateX
p120
aVtranslateY
p121
aVtranslateZ
p122
aVautoShoulders
p123
aaF0
aF0
aF0
aF0
aa(lp124
S'clavicle_r_anim'
p125
a(lp126
VtranslateX
p127
aVtranslateY
p128
aVtranslateZ
p129
aVautoShoulders
p130
aaF0
aF0
aF0
aF0
aa(lp131
S'fk_arm_l_anim'
p132
a(lp133
VtranslateX
p134
aVtranslateY
p135
aVtranslateZ
p136
aVrotateX
p137
aVrotateY
p138
aVrotateZ
p139
aaF0
aF0
aF0
aF40.195886067541672
aF49.21392867055097
aF7.525098527814321
aa(lp140
S'fk_arm_r_anim'
p141
a(lp142
VtranslateX
p143
aVtranslateY
p144
aVtranslateZ
p145
aVrotateX
p146
aVrotateY
p147
aVrotateZ
p148
aaF0
aF0
aF0
aF0
aF0
aF0
aa(lp149
S'fk_elbow_l_anim'
p150
a(lp151
VtranslateX
p152
aVtranslateY
p153
aVtranslateZ
p154
aVrotateX
p155
aVrotateY
p156
aVrotateZ
p157
aaF0
aF0
aF0
aF-0.39822239669164261
aF0.10189584308478711
aF-73.107516447708605
aa(lp158
S'fk_elbow_r_anim'
p159
a(lp160
VtranslateX
p161
aVtranslateY
p162
aVtranslateZ
p163
aVrotateX
p164
aVrotateY
p165
aVrotateZ
p166
aaF0
aF0
aF0
aF0
aF0
aF0
aa(lp167
S'fk_wrist_l_anim'
p168
a(lp169
VtranslateX
p170
aVtranslateY
p171
aVtranslateZ
p172
aVrotateX
p173
aVrotateY
p174
aVrotateZ
p175
aaF0
aF0
aF0
aF-22.537272172489999
aF-0.88060556735507856
aF18.891196724955066
aa(lp176
S'fk_wrist_r_anim'
p177
a(lp178
VtranslateX
p179
aVtranslateY
p180
aVtranslateZ
p181
aVrotateX
p182
aVrotateY
p183
aVrotateZ
p184
aaF0
aF0
aF0
aF0
aF0
aF0
aa(lp185
S'ik_elbow_l_anim'
p186
a(lp187
VtranslateX
p188
aVtranslateY
p189
aVtranslateZ
p190
aaF6.9089999036637408
aF-21.286138598058255
aF-46.00097990080269
aa(lp191
S'ik_elbow_r_anim'
p192
a(lp193
VtranslateX
p194
aVtranslateY
p195
aVtranslateZ
p196
aaF0
aF0
aF0
aa(lp197
S'ik_wrist_l_anim'
p198
a(lp199
VtranslateX
p200
aVtranslateY
p201
aVtranslateZ
p202
aVrotateX
p203
aVrotateY
p204
aVrotateZ
p205
aVstretch
p206
aVsquash
p207
aVstretchBias
p208
aVside
p209
aVmid_bend
p210
aVmid_swivel
p211
aVtip_pivot
p212
aVtip_swivel
p213
aaF-99.248366470090019
aF-1.9276538679897115
aF-102.77151095131055
aF82.234803872441347
aF116.3905107908941
aF35.286369026226303
aF0
aF0
aF0
aF0
aF0
aF0
aF0
aF0
aa(lp214
S'ik_wrist_r_anim'
p215
a(lp216
VtranslateX
p217
aVtranslateY
p218
aVtranslateZ
p219
aVrotateX
p220
aVrotateY
p221
aVrotateZ
p222
aVstretch
p223
aVsquash
p224
aVstretchBias
p225
aVside
p226
aVmid_bend
p227
aVmid_swivel
p228
aVtip_pivot
p229
aVtip_swivel
p230
aaF102.91750466932996
aF-39.81160349167898
aF-125.5439027689373
aF-109.66702492892088
aF-40.66471809096933
aF159.77775738900587
aF0
aF0
aF0
aF0
aF0
aF0
aF0
aF0
aa(lp231
S'fk_thigh_l_anim'
p232
a(lp233
VrotateX
p234
aVrotateY
p235
aVrotateZ
p236
aaF0
aF0
aF0
aa(lp237
S'fk_thigh_r_anim'
p238
a(lp239
VrotateX
p240
aVrotateY
p241
aVrotateZ
p242
aaF0
aF0
aF0
aa(lp243
S'fk_calf_l_anim'
p244
a(lp245
VrotateX
p246
aVrotateY
p247
aVrotateZ
p248
aaF0
aF0
aF0
aa(lp249
S'fk_calf_r_anim'
p250
a(lp251
VrotateX
p252
aVrotateY
p253
aVrotateZ
p254
aaF0
aF0
aF0
aa(lp255
S'fk_foot_l_anim'
p256
a(lp257
VrotateX
p258
aVrotateY
p259
aVrotateZ
p260
aaF0
aF0
aF0
aa(lp261
S'fk_foot_r_anim'
p262
a(lp263
VrotateX
p264
aVrotateY
p265
aVrotateZ
p266
aaF0
aF0
aF0
aa(lp267
S'fk_ball_l_anim'
p268
a(lp269
VrotateX
p270
aVrotateY
p271
aVrotateZ
p272
aaF0
aF0
aF0
aa(lp273
S'fk_ball_r_anim'
p274
a(lp275
VrotateX
p276
aVrotateY
p277
aVrotateZ
p278
aaF0
aF0
aF0
aa(lp279
S'ik_foot_anim_l'
p280
a(lp281
VtranslateX
p282
aVtranslateY
p283
aVtranslateZ
p284
aVrotateX
p285
aVrotateY
p286
aVrotateZ
p287
aVknee_twist
p288
aVstretch
p289
aVsquash
p290
aVtoeCtrlVis
p291
aVstretchBias
p292
aaF31.227186928956627
aF75.062042669417252
aF-2.1316282072803006e-14
aF0
aF0
aF64.888028418510544
aF9.9000000000000004
aF0
aF0
aI00
aF0
aa(lp293
S'ik_foot_anim_r'
p294
a(lp295
VtranslateX
p296
aVtranslateY
p297
aVtranslateZ
p298
aVrotateX
p299
aVrotateY
p300
aVrotateZ
p301
aVknee_twist
p302
aVstretch
p303
aVsquash
p304
aVtoeCtrlVis
p305
aVstretchBias
p306
aaF-15.433994452334893
aF-48.600142437217563
aF2.4868995751603507e-14
aF0
aF0
aF-7.3606795215078629
aF15.199999999999999
aF0
aF0
aI00
aF0
aa(lp307
S'heel_ctrl_l'
p308
a(lp309
VrotateX
p310
aVrotateY
p311
aVrotateZ
p312
aVheelPivot
p313
aVballPivot
p314
aaF0
aF0
aF0
aF0
aF0
aa(lp315
S'heel_ctrl_r'
p316
a(lp317
VrotateX
p318
aVrotateY
p319
aVrotateZ
p320
aVheelPivot
p321
aVballPivot
p322
aaF0
aF0
aF0
aF0
aF0
aa(lp323
S'toe_wiggle_ctrl_l'
p324
a(lp325
VrotateX
p326
aVrotateY
p327
aVrotateZ
p328
aaF0
aF0
aF0
aa(lp329
S'toe_wiggle_ctrl_r'
p330
a(lp331
VrotateX
p332
aVrotateY
p333
aVrotateZ
p334
aaF0
aF0
aF0
aa(lp335
S'toe_tip_ctrl_l'
p336
a(lp337
VrotateX
p338
aVrotateY
p339
aVrotateZ
p340
aaF0
aF0
aF0
aa(lp341
S'toe_tip_ctrl_r'
p342
a(lp343
VrotateX
p344
aVrotateY
p345
aVrotateZ
p346
aaF0
aF0
aF0
aa(lp347
S'master_anim'
p348
a(lp349
VtranslateX
p350
aVtranslateY
p351
aVtranslateZ
p352
aVrotateX
p353
aVrotateY
p354
aVrotateZ
p355
aaF0
aF0
aF0
aF0
aF0
aF0
aa(lp356
S'offset_anim'
p357
a(lp358
VtranslateX
p359
aVtranslateY
p360
aVtranslateZ
p361
aVrotateX
p362
aVrotateY
p363
aVrotateZ
p364
aaF0
aF0
aF0
aF0
aF0
aF0
aa(lp365
S'root_anim'
p366
a(lp367
VtranslateX
p368
aVtranslateY
p369
aVtranslateZ
p370
aVrotateX
p371
aVrotateY
p372
aVrotateZ
p373
aaF0
aF0
aF0
aF0
aF0
aF0
aa(lp374
S'upperarm_l_twist_anim'
p375
a(lp376
VtranslateX
p377
aVtranslateY
p378
aVtranslateZ
p379
aVrotateX
p380
aVrotateY
p381
aVrotateZ
p382
aVscaleX
p383
aVscaleY
p384
aVscaleZ
p385
aaF0
aF0
aF0
aF0
aF0
aF0
aF1
aF1
aF1
aa(lp386
S'upperarm_l_twist_2_anim'
p387
a(lp388
VtranslateX
p389
aVtranslateY
p390
aVtranslateZ
p391
aVrotateX
p392
aVrotateY
p393
aVrotateZ
p394
aVscaleX
p395
aVscaleY
p396
aVscaleZ
p397
aaF0
aF0
aF0
aF0
aF0
aF0
aF1
aF1
aF1
aa(lp398
S'upperarm_r_twist_anim'
p399
a(lp400
VtranslateX
p401
aVtranslateY
p402
aVtranslateZ
p403
aVrotateX
p404
aVrotateY
p405
aVrotateZ
p406
aVscaleX
p407
aVscaleY
p408
aVscaleZ
p409
aaF0
aF0
aF0
aF0
aF0
aF0
aF1
aF1
aF1
aa(lp410
S'upperarm_r_twist_2_anim'
p411
a(lp412
VtranslateX
p413
aVtranslateY
p414
aVtranslateZ
p415
aVrotateX
p416
aVrotateY
p417
aVrotateZ
p418
aVscaleX
p419
aVscaleY
p420
aVscaleZ
p421
aaF0
aF0
aF0
aF0
aF0
aF0
aF1
aF1
aF1
aa(lp422
S'lowerarm_l_twist_anim'
p423
a(lp424
VtranslateX
p425
aVtranslateY
p426
aVtranslateZ
p427
aVrotateX
p428
aVrotateY
p429
aVrotateZ
p430
aaF0
aF0
aF0
aF0
aF0
aF0
aa(lp431
S'lowerarm_r_twist_anim'
p432
a(lp433
VtranslateX
p434
aVtranslateY
p435
aVtranslateZ
p436
aVrotateX
p437
aVrotateY
p438
aVrotateZ
p439
aaF0
aF0
aF0
aF0
aF0
aF0
aa(lp440
S'l_thigh_twist_01_anim'
p441
a(lp442
VtranslateX
p443
aVtranslateY
p444
aVtranslateZ
p445
aVrotateX
p446
aVrotateY
p447
aVrotateZ
p448
aVscaleX
p449
aVscaleY
p450
aVscaleZ
p451
aaF0
aF0
aF0
aF0
aF0
aF0
aF1
aF1
aF1
aa(lp452
S'r_thigh_twist_01_anim'
p453
a(lp454
VtranslateX
p455
aVtranslateY
p456
aVtranslateZ
p457
aVrotateX
p458
aVrotateY
p459
aVrotateZ
p460
aVscaleX
p461
aVscaleY
p462
aVscaleZ
p463
aaF0
aF0
aF0
aF0
aF0
aF0
aF1
aF1
aF1
aa(lp464
S'pinky_metacarpal_ctrl_l'
p465
a(lp466
VrotateX
p467
aVrotateY
p468
aVrotateZ
p469
aaF0
aF0
aF0
aa(lp470
S'pinky_metacarpal_ctrl_r'
p471
a(lp472
VrotateX
p473
aVrotateY
p474
aVrotateZ
p475
aaF0
aF0
aF0
aa(lp476
S'pinky_finger_fk_ctrl_1_l'
p477
a(lp478
VtranslateX
p479
aVtranslateY
p480
aVtranslateZ
p481
aVrotateX
p482
aVrotateY
p483
aVrotateZ
p484
aVsticky
p485
aaF0
aF0
aF0
aF0
aF0
aF21.106517063486422
aF0
aa(lp486
S'pinky_finger_fk_ctrl_1_r'
p487
a(lp488
VtranslateX
p489
aVtranslateY
p490
aVtranslateZ
p491
aVrotateX
p492
aVrotateY
p493
aVrotateZ
p494
aVsticky
p495
aaF0
aF0
aF0
aF2.675494061667254
aF-1.1958317110238221
aF43.625618945798379
aF0
aa(lp496
S'pinky_finger_fk_ctrl_2_l'
p497
a(lp498
VtranslateX
p499
aVtranslateY
p500
aVtranslateZ
p501
aVrotateX
p502
aVrotateY
p503
aVrotateZ
p504
aaF0
aF0
aF0
aF-9.7642103003815048
aF-3.1854227864757916
aF56.274930809203262
aa(lp505
S'pinky_finger_fk_ctrl_2_r'
p506
a(lp507
VtranslateX
p508
aVtranslateY
p509
aVtranslateZ
p510
aVrotateX
p511
aVrotateY
p512
aVrotateZ
p513
aaF0
aF0
aF0
aF0
aF0
aF0
aa(lp514
S'pinky_finger_fk_ctrl_3_l'
p515
a(lp516
VtranslateX
p517
aVtranslateY
p518
aVtranslateZ
p519
aVrotateX
p520
aVrotateY
p521
aVrotateZ
p522
aaF0
aF0
aF0
aF0
aF0
aF27.577145918209965
aa(lp523
S'pinky_finger_fk_ctrl_3_r'
p524
a(lp525
VtranslateX
p526
aVtranslateY
p527
aVtranslateZ
p528
aVrotateX
p529
aVrotateY
p530
aVrotateZ
p531
aaF0
aF0
aF0
aF0
aF0
aF0
aa(lp532
S'ring_metacarpal_ctrl_l'
p533
a(lp534
VrotateX
p535
aVrotateY
p536
aVrotateZ
p537
aaF0
aF0
aF0
aa(lp538
S'ring_metacarpal_ctrl_r'
p539
a(lp540
VrotateX
p541
aVrotateY
p542
aVrotateZ
p543
aaF0
aF0
aF0
aa(lp544
S'ring_finger_fk_ctrl_1_l'
p545
a(lp546
VtranslateX
p547
aVtranslateY
p548
aVtranslateZ
p549
aVrotateX
p550
aVrotateY
p551
aVrotateZ
p552
aVsticky
p553
aaF0
aF0
aF0
aF0
aF0
aF26.57943372864797
aF0
aa(lp554
S'ring_finger_fk_ctrl_1_r'
p555
a(lp556
VtranslateX
p557
aVtranslateY
p558
aVtranslateZ
p559
aVrotateX
p560
aVrotateY
p561
aVrotateZ
p562
aVsticky
p563
aaF0
aF0
aF0
aF0
aF0
aF71.52989886248443
aF0
aa(lp564
S'ring_finger_fk_ctrl_2_l'
p565
a(lp566
VtranslateX
p567
aVtranslateY
p568
aVtranslateZ
p569
aVrotateX
p570
aVrotateY
p571
aVrotateZ
p572
aaF0
aF0
aF0
aF0
aF0
aF40.712682421520618
aa(lp573
S'ring_finger_fk_ctrl_2_r'
p574
a(lp575
VtranslateX
p576
aVtranslateY
p577
aVtranslateZ
p578
aVrotateX
p579
aVrotateY
p580
aVrotateZ
p581
aaF0
aF0
aF0
aF0
aF0
aF0
aa(lp582
S'ring_finger_fk_ctrl_3_l'
p583
a(lp584
VtranslateX
p585
aVtranslateY
p586
aVtranslateZ
p587
aVrotateX
p588
aVrotateY
p589
aVrotateZ
p590
aaF0
aF0
aF0
aF-13.940866178860439
aF10.086301941939182
aF82.252765237340654
aa(lp591
S'ring_finger_fk_ctrl_3_r'
p592
a(lp593
VtranslateX
p594
aVtranslateY
p595
aVtranslateZ
p596
aVrotateX
p597
aVrotateY
p598
aVrotateZ
p599
aaF0
aF0
aF0
aF0
aF0
aF0
aa(lp600
S'middle_metacarpal_ctrl_l'
p601
a(lp602
VrotateX
p603
aVrotateY
p604
aVrotateZ
p605
aaF0
aF0
aF0
aa(lp606
S'middle_metacarpal_ctrl_r'
p607
a(lp608
VrotateX
p609
aVrotateY
p610
aVrotateZ
p611
aaF0
aF0
aF0
aa(lp612
S'middle_finger_fk_ctrl_1_l'
p613
a(lp614
VtranslateX
p615
aVtranslateY
p616
aVtranslateZ
p617
aVrotateX
p618
aVrotateY
p619
aVrotateZ
p620
aVsticky
p621
aaF0
aF0
aF0
aF0
aF0
aF35.384910191816104
aF0
aa(lp622
S'middle_finger_fk_ctrl_1_r'
p623
a(lp624
VtranslateX
p625
aVtranslateY
p626
aVtranslateZ
p627
aVrotateX
p628
aVrotateY
p629
aVrotateZ
p630
aVsticky
p631
aaF0
aF0
aF0
aF0
aF0
aF63.024397080125851
aF0
aa(lp632
S'middle_finger_fk_ctrl_2_l'
p633
a(lp634
VtranslateX
p635
aVtranslateY
p636
aVtranslateZ
p637
aVrotateX
p638
aVrotateY
p639
aVrotateZ
p640
aaF0
aF0
aF0
aF0
aF0
aF49.730505210655139
aa(lp641
S'middle_finger_fk_ctrl_2_r'
p642
a(lp643
VtranslateX
p644
aVtranslateY
p645
aVtranslateZ
p646
aVrotateX
p647
aVrotateY
p648
aVrotateZ
p649
aaF0
aF0
aF0
aF0
aF0
aF0
aa(lp650
S'middle_finger_fk_ctrl_3_l'
p651
a(lp652
VtranslateX
p653
aVtranslateY
p654
aVtranslateZ
p655
aVrotateX
p656
aVrotateY
p657
aVrotateZ
p658
aaF0
aF0
aF0
aF0
aF0
aF58.946528378878355
aa(lp659
S'middle_finger_fk_ctrl_3_r'
p660
a(lp661
VtranslateX
p662
aVtranslateY
p663
aVtranslateZ
p664
aVrotateX
p665
aVrotateY
p666
aVrotateZ
p667
aaF0
aF0
aF0
aF0
aF0
aF0
aa(lp668
S'index_metacarpal_ctrl_l'
p669
a(lp670
VrotateX
p671
aVrotateY
p672
aVrotateZ
p673
aaF0
aF0
aF0
aa(lp674
S'index_metacarpal_ctrl_r'
p675
a(lp676
VrotateX
p677
aVrotateY
p678
aVrotateZ
p679
aaF0
aF0
aF0
aa(lp680
S'index_finger_fk_ctrl_1_l'
p681
a(lp682
VtranslateX
p683
aVtranslateY
p684
aVtranslateZ
p685
aVrotateX
p686
aVrotateY
p687
aVrotateZ
p688
aVsticky
p689
aaF0
aF0
aF0
aF0
aF0
aF30.001243117224739
aF0
aa(lp690
S'index_finger_fk_ctrl_1_r'
p691
a(lp692
VtranslateX
p693
aVtranslateY
p694
aVtranslateZ
p695
aVrotateX
p696
aVrotateY
p697
aVrotateZ
p698
aVsticky
p699
aaF0
aF0
aF0
aF0
aF0
aF54.453702836151869
aF0
aa(lp700
S'index_finger_fk_ctrl_2_l'
p701
a(lp702
VtranslateX
p703
aVtranslateY
p704
aVtranslateZ
p705
aVrotateX
p706
aVrotateY
p707
aVrotateZ
p708
aaF0
aF0
aF0
aF0
aF0
aF61.022554992702148
aa(lp709
S'index_finger_fk_ctrl_2_r'
p710
a(lp711
VtranslateX
p712
aVtranslateY
p713
aVtranslateZ
p714
aVrotateX
p715
aVrotateY
p716
aVrotateZ
p717
aaF0
aF0
aF0
aF0
aF0
aF0
aa(lp718
S'index_finger_fk_ctrl_3_l'
p719
a(lp720
VtranslateX
p721
aVtranslateY
p722
aVtranslateZ
p723
aVrotateX
p724
aVrotateY
p725
aVrotateZ
p726
aaF0
aF0
aF0
aF0
aF0
aF60.063245230802572
aa(lp727
S'index_finger_fk_ctrl_3_r'
p728
a(lp729
VtranslateX
p730
aVtranslateY
p731
aVtranslateZ
p732
aVrotateX
p733
aVrotateY
p734
aVrotateZ
p735
aaF0
aF0
aF0
aF0
aF0
aF0
aa(lp736
S'thumb_finger_fk_ctrl_1_l'
p737
a(lp738
VtranslateX
p739
aVtranslateY
p740
aVtranslateZ
p741
aVrotateX
p742
aVrotateY
p743
aVrotateZ
p744
aVsticky
p745
aaF0
aF0
aF0
aF0
aF0
aF0
aF0
aa(lp746
S'thumb_finger_fk_ctrl_1_r'
p747
a(lp748
VtranslateX
p749
aVtranslateY
p750
aVtranslateZ
p751
aVrotateX
p752
aVrotateY
p753
aVrotateZ
p754
aVsticky
p755
aaF0
aF0
aF0
aF0
aF0
aF0
aF0
aa(lp756
S'thumb_finger_fk_ctrl_2_l'
p757
a(lp758
VtranslateX
p759
aVtranslateY
p760
aVtranslateZ
p761
aVrotateX
p762
aVrotateY
p763
aVrotateZ
p764
aaF0
aF0
aF0
aF0
aF0
aF22.321479656346931
aa(lp765
S'thumb_finger_fk_ctrl_2_r'
p766
a(lp767
VtranslateX
p768
aVtranslateY
p769
aVtranslateZ
p770
aVrotateX
p771
aVrotateY
p772
aVrotateZ
p773
aaF0
aF0
aF0
aF0
aF0
aF67.407449781796572
aa(lp774
S'thumb_finger_fk_ctrl_3_l'
p775
a(lp776
VtranslateX
p777
aVtranslateY
p778
aVtranslateZ
p779
aVrotateX
p780
aVrotateY
p781
aVrotateZ
p782
aaF0
aF0
aF0
aF0
aF0
aF56.550444862602006
aa(lp783
S'thumb_finger_fk_ctrl_3_r'
p784
a(lp785
VtranslateX
p786
aVtranslateY
p787
aVtranslateZ
p788
aVrotateX
p789
aVrotateY
p790
aVrotateZ
p791
aaF0
aF0
aF0
aF0
aF0
aF0
aa(lp792
S'index_l_ik_anim'
p793
a(lp794
VtranslateX
p795
aVtranslateY
p796
aVtranslateZ
p797
aVrotateX
p798
aVrotateY
p799
aVrotateZ
p800
aVpoleVectorVis
p801
aaF0
aF0
aF0
aF0
aF0
aF0
aF0
aa(lp802
S'index_r_ik_anim'
p803
a(lp804
VtranslateX
p805
aVtranslateY
p806
aVtranslateZ
p807
aVrotateX
p808
aVrotateY
p809
aVrotateZ
p810
aVpoleVectorVis
p811
aaF0
aF0
aF0
aF0
aF0
aF0
aF0
aa(lp812
S'middle_l_ik_anim'
p813
a(lp814
VtranslateX
p815
aVtranslateY
p816
aVtranslateZ
p817
aVrotateX
p818
aVrotateY
p819
aVrotateZ
p820
aVpoleVectorVis
p821
aaF0
aF0
aF0
aF0
aF0
aF0
aF0
aa(lp822
S'middle_r_ik_anim'
p823
a(lp824
VtranslateX
p825
aVtranslateY
p826
aVtranslateZ
p827
aVrotateX
p828
aVrotateY
p829
aVrotateZ
p830
aVpoleVectorVis
p831
aaF0
aF0
aF0
aF0
aF0
aF0
aF0
aa(lp832
S'ring_l_ik_anim'
p833
a(lp834
VtranslateX
p835
aVtranslateY
p836
aVtranslateZ
p837
aVrotateX
p838
aVrotateY
p839
aVrotateZ
p840
aVpoleVectorVis
p841
aaF0
aF0
aF0
aF0
aF0
aF0
aF0
aa(lp842
S'ring_r_ik_anim'
p843
a(lp844
VtranslateX
p845
aVtranslateY
p846
aVtranslateZ
p847
aVrotateX
p848
aVrotateY
p849
aVrotateZ
p850
aVpoleVectorVis
p851
aaF0
aF0
aF0
aF0
aF0
aF0
aF0
aa(lp852
S'pinky_l_ik_anim'
p853
a(lp854
VtranslateX
p855
aVtranslateY
p856
aVtranslateZ
p857
aVrotateX
p858
aVrotateY
p859
aVrotateZ
p860
aVpoleVectorVis
p861
aaF0
aF0
aF0
aF0
aF0
aF0
aF0
aa(lp862
S'pinky_r_ik_anim'
p863
a(lp864
VtranslateX
p865
aVtranslateY
p866
aVtranslateZ
p867
aVrotateX
p868
aVrotateY
p869
aVrotateZ
p870
aVpoleVectorVis
p871
aaF0
aF0
aF0
aF0
aF0
aF0
aF0
aa(lp872
S'thumb_l_ik_anim'
p873
a(lp874
VtranslateX
p875
aVtranslateY
p876
aVtranslateZ
p877
aVrotateX
p878
aVrotateY
p879
aVrotateZ
p880
aVpoleVectorVis
p881
aaF0
aF0
aF0
aF0
aF0
aF0
aF0
aa(lp882
S'thumb_r_ik_anim'
p883
a(lp884
VtranslateX
p885
aVtranslateY
p886
aVtranslateZ
p887
aVrotateX
p888
aVrotateY
p889
aVrotateZ
p890
aVpoleVectorVis
p891
aaF0
aF0
aF0
aF0
aF0
aF0
aF0
aa(lp892
S'index_l_poleVector'
p893
a(lp894
VtranslateX
p895
aVtranslateY
p896
aVtranslateZ
p897
aVrotateX
p898
aVrotateY
p899
aVrotateZ
p900
aaF0
aF0
aF0
aF0
aF0
aF0
aa(lp901
S'index_r_poleVector'
p902
a(lp903
VtranslateX
p904
aVtranslateY
p905
aVtranslateZ
p906
aVrotateX
p907
aVrotateY
p908
aVrotateZ
p909
aaF0
aF0
aF0
aF0
aF0
aF0
aa(lp910
S'middle_l_poleVector'
p911
a(lp912
VtranslateX
p913
aVtranslateY
p914
aVtranslateZ
p915
aVrotateX
p916
aVrotateY
p917
aVrotateZ
p918
aaF0
aF0
aF0
aF0
aF0
aF0
aa(lp919
S'middle_r_poleVector'
p920
a(lp921
VtranslateX
p922
aVtranslateY
p923
aVtranslateZ
p924
aVrotateX
p925
aVrotateY
p926
aVrotateZ
p927
aaF0
aF0
aF0
aF0
aF0
aF0
aa(lp928
S'ring_l_poleVector'
p929
a(lp930
VtranslateX
p931
aVtranslateY
p932
aVtranslateZ
p933
aVrotateX
p934
aVrotateY
p935
aVrotateZ
p936
aaF0
aF0
aF0
aF0
aF0
aF0
aa(lp937
S'ring_r_poleVector'
p938
a(lp939
VtranslateX
p940
aVtranslateY
p941
aVtranslateZ
p942
aVrotateX
p943
aVrotateY
p944
aVrotateZ
p945
aaF0
aF0
aF0
aF0
aF0
aF0
aa(lp946
S'pinky_l_poleVector'
p947
a(lp948
VtranslateX
p949
aVtranslateY
p950
aVtranslateZ
p951
aVrotateX
p952
aVrotateY
p953
aVrotateZ
p954
aaF0
aF0
aF0
aF0
aF0
aF0
aa(lp955
S'pinky_r_poleVector'
p956
a(lp957
VtranslateX
p958
aVtranslateY
p959
aVtranslateZ
p960
aVrotateX
p961
aVrotateY
p962
aVrotateZ
p963
aaF0
aF0
aF0
aF0
aF0
aF0
aa(lp964
S'thumb_l_poleVector'
p965
a(lp966
VtranslateX
p967
aVtranslateY
p968
aVtranslateZ
p969
aVrotateX
p970
aVrotateY
p971
aVrotateZ
p972
aaF0
aF0
aF0
aF0
aF0
aF0
aa(lp973
S'thumb_r_poleVector'
p974
a(lp975
VtranslateX
p976
aVtranslateY
p977
aVtranslateZ
p978
aVrotateX
p979
aVrotateY
p980
aVrotateZ
p981
aaF0
aF0
aF0
aF0
aF0
aF0
aa(lp982
S'l_global_ik_anim'
p983
a(lp984
VtranslateX
p985
aVtranslateY
p986
aVtranslateZ
p987
aVrotateX
p988
aVrotateY
p989
aVrotateZ
p990
aaF0
aF0
aF0
aF0
aF0
aF0
aa(lp991
S'r_global_ik_anim'
p992
a(lp993
VtranslateX
p994
aVtranslateY
p995
aVtranslateZ
p996
aVrotateX
p997
aVrotateY
p998
aVrotateZ
p999
aaF0
aF0
aF0
aF0.45114362003498276
aF0.27912178330438814
aF0.87899245217640354
aa(lp1000
S'Rig_Settings'
p1001
a(lp1002
Vspine_ik
p1003
aVspine_fk
p1004
aVlLegMode
p1005
aVlThighTwistAmount
p1006
aVllegTwistCtrlVis
p1007
aVlCalfTwistAmount
p1008
aVrLegMode
p1009
aVrThighTwistAmount
p1010
aVrlegTwistCtrlVis
p1011
aVrCalfTwistAmount
p1012
aVlFkArmOrient
p1013
aVlArmMode
p1014
aVlClavMode
p1015
aVlUpperarmTwistAmount
p1016
aVlUpperarmTwist2Amount
p1017
aVltwistCtrlVis
p1018
aVltwistCtrlVisLower
p1019
aVlForearmTwistAmount
p1020
aVlForearmTwist2Amount
p1021
aVrFkArmOrient
p1022
aVrArmMode
p1023
aVrClavMode
p1024
aVrUpperarmTwistAmount
p1025
aVrUpperarmTwist2Amount
p1026
aVrtwistCtrlVis
p1027
aVrtwistCtrlVisLower
p1028
aVrForearmTwistAmount
p1029
aVrForearmTwist2Amount
p1030
aaF1
aF0
aI1
aF1
aI00
aF0.5
aI1
aF1
aI00
aF0.5
aI0
aI1
aI1
aF0.90000000000000002
aF0.59999999999999998
aI00
aI00
aF0.75
aF0.5
aI0
aI1
aI1
aF0.90000000000000002
aF0.59999999999999998
aI00
aI00
aF0.75
aF0.5
aa(lp1031
S'calf_l_twist_anim'
p1032
a(lp1033
VtranslateX
p1034
aVtranslateY
p1035
aVtranslateZ
p1036
aVrotateX
p1037
aVrotateY
p1038
aVrotateZ
p1039
aaF0
aF0
aF0
aF0
aF0
aF0
aa(lp1040
S'calf_r_twist_anim'
p1041
a(lp1042
VtranslateX
p1043
aVtranslateY
p1044
aVtranslateZ
p1045
aVrotateX
p1046
aVrotateY
p1047
aVrotateZ
p1048
aaF0
aF0
aF0
aF0
aF0
aF0
aa(lp1049
S'lowerarm_l_twist2_anim'
p1050
a(lp1051
VtranslateX
p1052
aVtranslateY
p1053
aVtranslateZ
p1054
aVrotateX
p1055
aVrotateY
p1056
aVrotateZ
p1057
aaF0
aF0
aF0
aF0
aF0
aF0
aa(lp1058
S'lowerarm_r_twist2_anim'
p1059
a(lp1060
VtranslateX
p1061
aVtranslateY
p1062
aVtranslateZ
p1063
aVrotateX
p1064
aVrotateY
p1065
aVrotateZ
p1066
aaF0
aF0
aF0
aF0
aF0
aF0
aa(lp1067
Vbody_anim_space_switcher
p1068
a(lp1069
Vvisibility
p1070
aVtranslateX
p1071
aVtranslateY
p1072
aVtranslateZ
p1073
aVrotateX
p1074
aVrotateY
p1075
aVrotateZ
p1076
aVscaleX
p1077
aVscaleY
p1078
aVscaleZ
p1079
aVspace_world
p1080
aaI01
aF0
aF0
aF0
aF0
aF0
aF0
aF1
aF1
aF1
aF0
aa(lp1081
Vchest_ik_anim_space_switcher
p1082
a(lp1083
Vvisibility
p1084
aVtranslateX
p1085
aVtranslateY
p1086
aVtranslateZ
p1087
aVrotateX
p1088
aVrotateY
p1089
aVrotateZ
p1090
aVscaleX
p1091
aVscaleY
p1092
aVscaleZ
p1093
aVspace_world
p1094
aVspace_chest_ik_world_aligned
p1095
aaI01
aF0
aF0
aF0
aF-7.0622500768802538e-31
aF-0
aF0
aF1
aF1
aF1
aF0
aF0
aa(lp1096
Vik_elbow_l_anim_space_switcher
p1097
a(lp1098
Vvisibility
p1099
aVtranslateX
p1100
aVtranslateY
p1101
aVtranslateZ
p1102
aVrotateX
p1103
aVrotateY
p1104
aVrotateZ
p1105
aVscaleX
p1106
aVscaleY
p1107
aVscaleZ
p1108
aVspace_world
p1109
aVspace_body_anim
p1110
aVspace_chest_ik_anim
p1111
aaI01
aF0
aF0
aF0
aF0
aF0
aF0
aF1
aF1
aF1
aF0
aF0
aF0
aa(lp1112
Vik_elbow_r_anim_space_switcher
p1113
a(lp1114
Vvisibility
p1115
aVtranslateX
p1116
aVtranslateY
p1117
aVtranslateZ
p1118
aVrotateX
p1119
aVrotateY
p1120
aVrotateZ
p1121
aVscaleX
p1122
aVscaleY
p1123
aVscaleZ
p1124
aVspace_world
p1125
aVspace_body_anim
p1126
aVspace_chest_ik_anim
p1127
aaI01
aF0
aF0
aF0
aF0
aF0
aF0
aF1
aF1
aF1
aF0
aF0
aF0
aa(lp1128
Vik_foot_anim_l_space_switcher
p1129
a(lp1130
Vvisibility
p1131
aVtranslateX
p1132
aVtranslateY
p1133
aVtranslateZ
p1134
aVrotateX
p1135
aVrotateY
p1136
aVrotateZ
p1137
aVscaleX
p1138
aVscaleY
p1139
aVscaleZ
p1140
aVspace_world
p1141
aVspace_body_anim
p1142
aaI01
aF0
aF0
aF0
aF0
aF0
aF0
aF1
aF1
aF1
aF0
aF0
aa(lp1143
Vik_foot_anim_r_space_switcher
p1144
a(lp1145
Vvisibility
p1146
aVtranslateX
p1147
aVtranslateY
p1148
aVtranslateZ
p1149
aVrotateX
p1150
aVrotateY
p1151
aVrotateZ
p1152
aVscaleX
p1153
aVscaleY
p1154
aVscaleZ
p1155
aVspace_world
p1156
aVspace_body_anim
p1157
aaI01
aF0
aF0
aF0
aF0
aF0
aF0
aF1
aF1
aF1
aF0
aF0
aa(lp1158
Vik_wrist_l_anim_space_switcher
p1159
a(lp1160
Vvisibility
p1161
aVtranslateX
p1162
aVtranslateY
p1163
aVtranslateZ
p1164
aVrotateX
p1165
aVrotateY
p1166
aVrotateZ
p1167
aVscaleX
p1168
aVscaleY
p1169
aVscaleZ
p1170
aVspace_world
p1171
aVspace_body_anim
p1172
aVspace_head_fk_anim
p1173
aVspace_chest_ik_anim
p1174
aaI01
aF0
aF0
aF0
aF0
aF0
aF0
aF1
aF1
aF1
aF0
aF0
aF0
aF0
aa(lp1175
Vik_wrist_r_anim_space_switcher
p1176
a(lp1177
Vvisibility
p1178
aVtranslateX
p1179
aVtranslateY
p1180
aVtranslateZ
p1181
aVrotateX
p1182
aVrotateY
p1183
aVrotateZ
p1184
aVscaleX
p1185
aVscaleY
p1186
aVscaleZ
p1187
aVspace_world
p1188
aVspace_body_anim
p1189
aVspace_head_fk_anim
p1190
aVspace_chest_ik_anim
p1191
aaI01
aF0
aF0
aF0
aF0
aF0
aF0
aF1
aF1
aF1
aF0
aF0
aF0
aF0
aa(lp1192
Vl_global_ik_anim_space_switcher
p1193
a(lp1194
Vvisibility
p1195
aVtranslateX
p1196
aVtranslateY
p1197
aVtranslateZ
p1198
aVrotateX
p1199
aVrotateY
p1200
aVrotateZ
p1201
aVscaleX
p1202
aVscaleY
p1203
aVscaleZ
p1204
aVspace_world
p1205
aaI01
aF0
aF0
aF0
aF0
aF0
aF0
aF1
aF1
aF1
aF0
aa(lp1206
Vmaster_anim_space_switcher
p1207
a(lp1208
Vvisibility
p1209
aVtranslateX
p1210
aVtranslateY
p1211
aVtranslateZ
p1212
aVrotateX
p1213
aVrotateY
p1214
aVrotateZ
p1215
aVscaleX
p1216
aVscaleY
p1217
aVscaleZ
p1218
aVspace_world
p1219
aaI01
aF0
aF0
aF0
aF0
aF0
aF0
aF1
aF1
aF1
aF0
aa(lp1220
Vr_global_ik_anim_space_switcher
p1221
a(lp1222
Vvisibility
p1223
aVtranslateX
p1224
aVtranslateY
p1225
aVtranslateZ
p1226
aVrotateX
p1227
aVrotateY
p1228
aVrotateZ
p1229
aVscaleX
p1230
aVscaleY
p1231
aVscaleZ
p1232
aVspace_world
p1233
aaI01
aF0
aF0
aF0
aF0
aF0
aF0
aF1
aF1
aF1
aF0
aa(lp1234
Vspine_01_space_switcher
p1235
a(lp1236
Vvisibility
p1237
aVtranslateX
p1238
aVtranslateY
p1239
aVtranslateZ
p1240
aVrotateX
p1241
aVrotateY
p1242
aVrotateZ
p1243
aVscaleX
p1244
aVscaleY
p1245
aVscaleZ
p1246
aVspace_world
p1247
aaI01
aF0
aF0
aF-2.5243548967072378e-29
aF0
aF-5.649800061504203e-30
aF0
aF1
aF1
aF1
aF0
aa.