(lp1
(lp2
S'fk_clavicle_r_anim'
p3
a(lp4
VtranslateX
p5
aVtranslateY
p6
aVtranslateZ
p7
aVrotateX
p8
aVrotateY
p9
aVrotateZ
p10
aaF0
aF0
aF0
aF0
aF0
aF0
aa(lp11
S'fk_clavicle_l_anim'
p12
a(lp13
VtranslateX
p14
aVtranslateY
p15
aVtranslateZ
p16
aVrotateX
p17
aVrotateY
p18
aVrotateZ
p19
aaF0
aF0
aF0
aF0
aF0
aF0
aa(lp20
S'head_fk_anim'
p21
a(lp22
VtranslateX
p23
aVtranslateY
p24
aVtranslateZ
p25
aVrotateX
p26
aVrotateY
p27
aVrotateZ
p28
aVscaleX
p29
aVscaleY
p30
aVscaleZ
p31
aVfkOrientation
p32
aaF0
aF0
aF0
aF-106.96251535933514
aF-35.014057424798168
aF18.232319408614337
aF1
aF1
aF1
aI0
aa(lp33
S'neck_01_fk_anim'
p34
a(lp35
VtranslateX
p36
aVtranslateY
p37
aVtranslateZ
p38
aVrotateX
p39
aVrotateY
p40
aVrotateZ
p41
aVscaleX
p42
aVscaleY
p43
aVscaleZ
p44
aVfkOrientation
p45
aaF0
aF0
aF-6.3108872417680944e-30
aF0
aF0
aF-8.9592174411409182
aF1
aF1
aF1
aI0
aa(lp46
S'spine_01_anim'
p47
a(lp48
Vlength
p49
aVtranslateY
p50
aVtranslateZ
p51
aVrotateX
p52
aVrotateY
p53
aVrotateZ
p54
aaF0
aF0
aF0
aF1.2452766988371748
aF-8.9159190358408953
aF-12.341740187421514
aa(lp55
S'spine_02_anim'
p56
a(lp57
Vlength
p58
aVtranslateY
p59
aVtranslateZ
p60
aVrotateX
p61
aVrotateY
p62
aVrotateZ
p63
aaF0
aF0
aF0
aF16.289828453907351
aF1.3931329071355487
aF-6.142252872191869
aa(lp64
S'spine_03_anim'
p65
a(lp66
Vlength
p67
aVtranslateY
p68
aVtranslateZ
p69
aVrotateX
p70
aVrotateY
p71
aVrotateZ
p72
aaF0
aF0
aF0
aF15.81440011421442
aF-5.961060325015259
aF-16.262154457930077
aa(lp73
S'mid_ik_anim'
p74
a(lp75
VtranslateX
p76
aVtranslateY
p77
aVtranslateZ
p78
aVrotateX
p79
aVrotateY
p80
aVrotateZ
p81
aaF-1.8312472754868736
aF-3.4263337361688704
aF1.2633982973883278
aF16.631989065280575
aF-8.8527820234042895
aF-9.0881623662459443
aa(lp82
S'chest_ik_anim'
p83
a(lp84
VtranslateX
p85
aVtranslateY
p86
aVtranslateZ
p87
aVrotateX
p88
aVrotateY
p89
aVrotateZ
p90
aVstretch
p91
aVsquash
p92
aVtwist_amount
p93
aVautoSpine
p94
aVrotationInfluence
p95
aaF-0.55040057597544489
aF-6.4391696015903488
aF2.5119773515128827
aF32.21525938784292
aF-16.182273156373729
aF-19.995134273546451
aF0
aF0
aF1
aF0
aF0.25
aa(lp96
S'body_anim'
p97
a(lp98
VtranslateX
p99
aVtranslateY
p100
aVtranslateZ
p101
aVrotateX
p102
aVrotateY
p103
aVrotateZ
p104
aaF-32.111072478828689
aF-41.857706381988606
aF2.9566736221313508
aF73.187341155677458
aF-8.2302399090646432
aF-6.3220887618897939
aa(lp105
S'hip_anim'
p106
a(lp107
VtranslateX
p108
aVtranslateY
p109
aVtranslateZ
p110
aVrotateX
p111
aVrotateY
p112
aVrotateZ
p113
aVlCalfTwistCtrlVis
p114
aVrCalfTwistCtrlVis
p115
aVautoHips
p116
aaF0
aF0
aF-6.3108872417680944e-30
aF3.7272125173400562e-17
aF-2.5444437451708134e-14
aF4.9696166897867437e-17
aI00
aI00
aF0
aa(lp117
S'clavicle_l_anim'
p118
a(lp119
VtranslateX
p120
aVtranslateY
p121
aVtranslateZ
p122
aVautoShoulders
p123
aaF-0.0030714401315599105
aF-2.8183743043722718
aF1.621091188260209
aF0
aa(lp124
S'clavicle_r_anim'
p125
a(lp126
VtranslateX
p127
aVtranslateY
p128
aVtranslateZ
p129
aVautoShoulders
p130
aaF-0.0030711912414318476
aF-2.8183902000896097
aF1.6210876405639851
aF0
aa(lp131
S'fk_arm_l_anim'
p132
a(lp133
VtranslateX
p134
aVtranslateY
p135
aVtranslateZ
p136
aVrotateX
p137
aVrotateY
p138
aVrotateZ
p139
aaF0
aF0
aF0
aF61.672944917405253
aF7.966229886865249
aF-24.668556560922923
aa(lp140
S'fk_arm_r_anim'
p141
a(lp142
VtranslateX
p143
aVtranslateY
p144
aVtranslateZ
p145
aVrotateX
p146
aVrotateY
p147
aVrotateZ
p148
aaF0
aF0
aF0
aF44.759806619962951
aF-19.504741896704129
aF-34.72597943801005
aa(lp149
S'fk_elbow_l_anim'
p150
a(lp151
VtranslateX
p152
aVtranslateY
p153
aVtranslateZ
p154
aVrotateX
p155
aVrotateY
p156
aVrotateZ
p157
aaF0
aF0
aF0
aF-3.2611789703369332
aF6.6772112846374352
aF-27.743198394775401
aa(lp158
S'fk_elbow_r_anim'
p159
a(lp160
VtranslateX
p161
aVtranslateY
p162
aVtranslateZ
p163
aVrotateX
p164
aVrotateY
p165
aVrotateZ
p166
aaF0
aF0
aF0
aF-5.1550235748291184
aF6.8667826652526971
aF-25.945745468139666
aa(lp167
S'fk_wrist_l_anim'
p168
a(lp169
VtranslateX
p170
aVtranslateY
p171
aVtranslateZ
p172
aVrotateX
p173
aVrotateY
p174
aVrotateZ
p175
aaF0
aF0
aF0
aF-87.190956115722614
aF24.180480957031268
aF-24.481943130493132
aa(lp176
S'fk_wrist_r_anim'
p177
a(lp178
VtranslateX
p179
aVtranslateY
p180
aVtranslateZ
p181
aVrotateX
p182
aVrotateY
p183
aVrotateZ
p184
aaF0
aF0
aF0
aF-118.95646667480474
aF8.4499435424804492
aF-23.429193496704119
aa(lp185
S'ik_elbow_l_anim'
p186
a(lp187
VtranslateX
p188
aVtranslateY
p189
aVtranslateZ
p190
aaF-41.374626074315849
aF-45.630361814966157
aF-19.437268147237234
aa(lp191
S'ik_elbow_r_anim'
p192
a(lp193
VtranslateX
p194
aVtranslateY
p195
aVtranslateZ
p196
aaF61.594233946901312
aF-110.76355456435118
aF-44.336663831256061
aa(lp197
S'ik_wrist_l_anim'
p198
a(lp199
VtranslateX
p200
aVtranslateY
p201
aVtranslateZ
p202
aVrotateX
p203
aVrotateY
p204
aVrotateZ
p205
aVstretch
p206
aVsquash
p207
aVstretchBias
p208
aVside
p209
aVmid_bend
p210
aVmid_swivel
p211
aVtip_pivot
p212
aVtip_swivel
p213
aaF-54.30062782254393
aF-16.444330869847676
aF-30.44400134146602
aF-1.0705244424096916
aF40.546929220014484
aF93.382104989496241
aF0
aF0
aF0
aF0
aF0
aF0
aF0
aF0
aa(lp214
S'ik_wrist_r_anim'
p215
a(lp216
VtranslateX
p217
aVtranslateY
p218
aVtranslateZ
p219
aVrotateX
p220
aVrotateY
p221
aVrotateZ
p222
aVstretch
p223
aVsquash
p224
aVstretchBias
p225
aVside
p226
aVmid_bend
p227
aVmid_swivel
p228
aVtip_pivot
p229
aVtip_swivel
p230
aaF96.01474080849944
aF-72.634267493632549
aF-47.047709801012175
aF-215.88033403876034
aF-103.13814626585329
aF-74.296505804178324
aF0
aF0
aF0
aF0
aF0
aF0
aF0
aF0
aa(lp231
S'fk_thigh_l_anim'
p232
a(lp233
VrotateX
p234
aVrotateY
p235
aVrotateZ
p236
aaF-362.87024434195234
aF-12.04572557843462
aF59.975561810329253
aa(lp237
S'fk_thigh_r_anim'
p238
a(lp239
VrotateX
p240
aVrotateY
p241
aVrotateZ
p242
aaF-341.21733850127339
aF-32.846028764604881
aF36.068152276617859
aa(lp243
S'fk_calf_l_anim'
p244
a(lp245
VrotateX
p246
aVrotateY
p247
aVrotateZ
p248
aaF2.4925291538238072
aF-3.0626411437988352
aF-77.602928161621051
aa(lp249
S'fk_calf_r_anim'
p250
a(lp251
VrotateX
p252
aVrotateY
p253
aVrotateZ
p254
aaF3.4103991985321449
aF-3.099881887435902
aF-94.730323791503878
aa(lp255
S'fk_foot_l_anim'
p256
a(lp257
VrotateX
p258
aVrotateY
p259
aVrotateZ
p260
aaF-42.768306732177734
aF23.252338409423807
aF17.637601852416974
aa(lp261
S'fk_foot_r_anim'
p262
a(lp263
VrotateX
p264
aVrotateY
p265
aVrotateZ
p266
aaF23.672704696655256
aF20.302562713623043
aF44.663303375244105
aa(lp267
S'fk_ball_l_anim'
p268
a(lp269
VrotateX
p270
aVrotateY
p271
aVrotateZ
p272
aaF9.9584794952481742e-06
aF1.6409616361717333e-05
aF-8.215221170771418e-05
aa(lp273
S'fk_ball_r_anim'
p274
a(lp275
VrotateX
p276
aVrotateY
p277
aVrotateZ
p278
aaF2.0272686015226967e-05
aF3.7968325765089634e-05
aF-0.00011007206920490834
aa(lp279
S'ik_foot_anim_l'
p280
a(lp281
VtranslateX
p282
aVtranslateY
p283
aVtranslateZ
p284
aVrotateX
p285
aVrotateY
p286
aVrotateZ
p287
aVknee_twist
p288
aVstretch
p289
aVsquash
p290
aVtoeCtrlVis
p291
aVstretchBias
p292
aaF4.0472689022408304e-06
aF-13.746630316335171
aF-3.0011926938300348e-05
aF-1.5748133348098534
aF2.0962789477029236
aF44.912233789548893
aF83
aF0
aF0
aI00
aF0
aa(lp293
S'ik_foot_anim_r'
p294
a(lp295
VtranslateX
p296
aVtranslateY
p297
aVtranslateZ
p298
aVrotateX
p299
aVrotateY
p300
aVrotateZ
p301
aVknee_twist
p302
aVstretch
p303
aVsquash
p304
aVtoeCtrlVis
p305
aVstretchBias
p306
aaF-9.8563441809451717
aF-59.417545747212458
aF3.1453198979135557
aF188.35340088280088
aF181.43447724490704
aF186.28026746207664
aF-44
aF0
aF0
aI00
aF0
aa(lp307
S'heel_ctrl_l'
p308
a(lp309
VrotateX
p310
aVrotateY
p311
aVrotateZ
p312
aVheelPivot
p313
aVballPivot
p314
aaF-2.4214457320985916e-14
aF1.3119788061037007e-14
aF0
aF0
aF0
aa(lp315
S'heel_ctrl_r'
p316
a(lp317
VrotateX
p318
aVrotateY
p319
aVrotateZ
p320
aVheelPivot
p321
aVballPivot
p322
aaF-2.4959899824453925e-14
aF-0
aF0
aF0
aF0
aa(lp323
S'toe_wiggle_ctrl_l'
p324
a(lp325
VrotateX
p326
aVrotateY
p327
aVrotateZ
p328
aaF-4.7708320221952752e-15
aF1.1541934762029712e-14
aF-3.180554681463516e-15
aa(lp329
S'toe_wiggle_ctrl_r'
p330
a(lp331
VrotateX
p332
aVrotateY
p333
aVrotateZ
p334
aaF4.7708320221952767e-15
aF6.8704950736301762e-15
aF-6.3611093629270351e-15
aa(lp335
S'toe_tip_ctrl_l'
p336
a(lp337
VrotateX
p338
aVrotateY
p339
aVrotateZ
p340
aaF0
aF5.3423379415207522e-15
aF1.9878466759146985e-16
aa(lp341
S'toe_tip_ctrl_r'
p342
a(lp343
VrotateX
p344
aVrotateY
p345
aVrotateZ
p346
aaF0
aF-6.3362612794780982e-15
aF1.9878466759146975e-16
aa(lp347
S'master_anim'
p348
a(lp349
VtranslateX
p350
aVtranslateY
p351
aVtranslateZ
p352
aVrotateX
p353
aVrotateY
p354
aVrotateZ
p355
aaF0
aF0
aF0
aF0
aF0
aF0
aa(lp356
S'offset_anim'
p357
a(lp358
VtranslateX
p359
aVtranslateY
p360
aVtranslateZ
p361
aVrotateX
p362
aVrotateY
p363
aVrotateZ
p364
aaF0
aF0
aF0
aF0
aF0
aF0
aa(lp365
S'root_anim'
p366
a(lp367
VtranslateX
p368
aVtranslateY
p369
aVtranslateZ
p370
aVrotateX
p371
aVrotateY
p372
aVrotateZ
p373
aaF0
aF0
aF0
aF0
aF0
aF0
aa(lp374
S'upperarm_l_twist_anim'
p375
a(lp376
VtranslateX
p377
aVtranslateY
p378
aVtranslateZ
p379
aVrotateX
p380
aVrotateY
p381
aVrotateZ
p382
aVscaleX
p383
aVscaleY
p384
aVscaleZ
p385
aaF1.4210854715202004e-14
aF1.7763568394002505e-15
aF0
aF-2.981770013872046e-16
aF-3.1805546814635168e-15
aF0
aF1
aF1.0000000000000002
aF1.0000000000000002
aa(lp386
S'upperarm_r_twist_anim'
p387
a(lp388
VtranslateX
p389
aVtranslateY
p390
aVtranslateZ
p391
aVrotateX
p392
aVrotateY
p393
aVrotateZ
p394
aVscaleX
p395
aVscaleY
p396
aVscaleZ
p397
aaF0
aF-1.7763568394002505e-15
aF1.4210854715202004e-14
aF1.9878466759146985e-16
aF-0
aF-2.981770013872048e-16
aF0.99999999999999978
aF0.99999999999999978
aF0.99999999999999978
aa(lp398
S'lowerarm_l_twist_anim'
p399
a(lp400
VtranslateX
p401
aVtranslateY
p402
aVtranslateZ
p403
aVrotateX
p404
aVrotateY
p405
aVrotateZ
p406
aaF0
aF0
aF0
aF0
aF0
aF0
aa(lp407
S'lowerarm_r_twist_anim'
p408
a(lp409
VtranslateX
p410
aVtranslateY
p411
aVtranslateZ
p412
aVrotateX
p413
aVrotateY
p414
aVrotateZ
p415
aaF0
aF0
aF0
aF0
aF0
aF0
aa(lp416
S'l_thigh_twist_01_anim'
p417
a(lp418
VtranslateX
p419
aVtranslateY
p420
aVtranslateZ
p421
aVrotateX
p422
aVrotateY
p423
aVrotateZ
p424
aVscaleX
p425
aVscaleY
p426
aVscaleZ
p427
aaF0
aF-1.6653345369377348e-16
aF0
aF-9.3490913976613134e-16
aF-0
aF-2.4848083448933725e-17
aF1
aF1
aF1
aa(lp428
S'r_thigh_twist_01_anim'
p429
a(lp430
VtranslateX
p431
aVtranslateY
p432
aVtranslateZ
p433
aVrotateX
p434
aVrotateY
p435
aVrotateZ
p436
aVscaleX
p437
aVscaleY
p438
aVscaleZ
p439
aaF1.4210854715202004e-14
aF5.5511151231257827e-17
aF0
aF-2.9724519825786976e-15
aF7.9513867036587939e-16
aF-1.1181637552020177e-16
aF0.99999999999999989
aF0.99999999999999978
aF0.99999999999999989
aa(lp440
S'pinky_finger_fk_ctrl_1_l'
p441
a(lp442
VtranslateX
p443
aVtranslateY
p444
aVtranslateZ
p445
aVrotateX
p446
aVrotateY
p447
aVrotateZ
p448
aVsticky
p449
aaF0
aF0
aF0
aF6.0913084701621887e-05
aF1.2497382647781249e-06
aF45.000203068442424
aF0
aa(lp450
S'pinky_finger_fk_ctrl_1_r'
p451
a(lp452
VtranslateX
p453
aVtranslateY
p454
aVtranslateZ
p455
aVrotateX
p456
aVrotateY
p457
aVrotateZ
p458
aVsticky
p459
aaF0
aF0
aF0
aF-6.0352890113806922e-05
aF-0.00014770871708708828
aF45.000405052083572
aF0
aa(lp460
S'pinky_finger_fk_ctrl_2_l'
p461
a(lp462
VtranslateX
p463
aVtranslateY
p464
aVtranslateZ
p465
aVrotateX
p466
aVrotateY
p467
aVrotateZ
p468
aaF0
aF0
aF0
aF7.8871019665819394e-15
aF-2.1660247761894745e-14
aF70
aa(lp469
S'pinky_finger_fk_ctrl_2_r'
p470
a(lp471
VtranslateX
p472
aVtranslateY
p473
aVtranslateZ
p474
aVrotateX
p475
aVrotateY
p476
aVrotateZ
p477
aaF0
aF0
aF0
aF-1.9445082552040829e-14
aF5.341368180034281e-14
aF70
aa(lp478
S'pinky_finger_fk_ctrl_3_l'
p479
a(lp480
VtranslateX
p481
aVtranslateY
p482
aVtranslateZ
p483
aVrotateX
p484
aVrotateY
p485
aVrotateZ
p486
aaF0
aF0
aF0
aF-4.6668638507531546e-14
aF4.3945924827776335e-14
aF45.000000000000007
aa(lp487
S'pinky_finger_fk_ctrl_3_r'
p488
a(lp489
VtranslateX
p490
aVtranslateY
p491
aVtranslateZ
p492
aVrotateX
p493
aVrotateY
p494
aVrotateZ
p495
aaF0
aF0
aF0
aF2.2201963940395711e-14
aF2.0095798135046162e-14
aF45
aa(lp496
S'ring_finger_fk_ctrl_1_l'
p497
a(lp498
VtranslateX
p499
aVtranslateY
p500
aVtranslateZ
p501
aVrotateX
p502
aVrotateY
p503
aVrotateZ
p504
aVsticky
p505
aaF0
aF0
aF0
aF5.307715746084797e-05
aF1.7837274582989164e-05
aF45.000204483271006
aF0
aa(lp506
S'ring_finger_fk_ctrl_1_r'
p507
a(lp508
VtranslateX
p509
aVtranslateY
p510
aVtranslateZ
p511
aVrotateX
p512
aVrotateY
p513
aVrotateZ
p514
aVsticky
p515
aaF0
aF0
aF0
aF-8.8811490355906827e-05
aF-9.7388547278829375e-05
aF45.000414916276519
aF0
aa(lp516
S'ring_finger_fk_ctrl_2_l'
p517
a(lp518
VtranslateX
p519
aVtranslateY
p520
aVtranslateZ
p521
aVrotateX
p522
aVrotateY
p523
aVrotateZ
p524
aaF0
aF0
aF0
aF0
aF0
aF70.000000000000014
aa(lp525
S'ring_finger_fk_ctrl_2_r'
p526
a(lp527
VtranslateX
p528
aVtranslateY
p529
aVtranslateZ
p530
aVrotateX
p531
aVrotateY
p532
aVrotateZ
p533
aaF0
aF0
aF0
aF0
aF0
aF70.000000000000014
aa(lp534
S'ring_finger_fk_ctrl_3_l'
p535
a(lp536
VtranslateX
p537
aVtranslateY
p538
aVtranslateZ
p539
aVrotateX
p540
aVrotateY
p541
aVrotateZ
p542
aaF0
aF0
aF0
aF0
aF0
aF59.999999999999972
aa(lp543
S'ring_finger_fk_ctrl_3_r'
p544
a(lp545
VtranslateX
p546
aVtranslateY
p547
aVtranslateZ
p548
aVrotateX
p549
aVrotateY
p550
aVrotateZ
p551
aaF0
aF0
aF0
aF0
aF0
aF59.999999999999943
aa(lp552
S'middle_finger_fk_ctrl_1_l'
p553
a(lp554
VtranslateX
p555
aVtranslateY
p556
aVtranslateZ
p557
aVrotateX
p558
aVrotateY
p559
aVrotateZ
p560
aVsticky
p561
aaF0
aF0
aF0
aF5.2572457550883464e-05
aF4.8975214921412526e-05
aF45.000199465114122
aF0
aa(lp562
S'middle_finger_fk_ctrl_1_r'
p563
a(lp564
VtranslateX
p565
aVtranslateY
p566
aVtranslateZ
p567
aVrotateX
p568
aVrotateY
p569
aVrotateZ
p570
aVsticky
p571
aaF0
aF0
aF0
aF-9.2136589654575154e-05
aF-2.9250392807257048e-05
aF45.000424479383703
aF0
aa(lp572
S'middle_finger_fk_ctrl_2_l'
p573
a(lp574
VtranslateX
p575
aVtranslateY
p576
aVtranslateZ
p577
aVrotateX
p578
aVrotateY
p579
aVrotateZ
p580
aaF0
aF0
aF0
aF6.4155911329767433e-16
aF-9.6666432156845994e-15
aF59.999999999999943
aa(lp581
S'middle_finger_fk_ctrl_2_r'
p582
a(lp583
VtranslateX
p584
aVtranslateY
p585
aVtranslateZ
p586
aVrotateX
p587
aVrotateY
p588
aVrotateZ
p589
aaF0
aF0
aF0
aF1.1211562936049588e-14
aF-1.1936533373082129e-15
aF60.000000000000007
aa(lp590
S'middle_finger_fk_ctrl_3_l'
p591
a(lp592
VtranslateX
p593
aVtranslateY
p594
aVtranslateZ
p595
aVrotateX
p596
aVrotateY
p597
aVrotateZ
p598
aaF0
aF0
aF0
aF4.696492463529898e-15
aF-1.1892991695642471e-14
aF60.000000000000057
aa(lp599
S'middle_finger_fk_ctrl_3_r'
p600
a(lp601
VtranslateX
p602
aVtranslateY
p603
aVtranslateZ
p604
aVrotateX
p605
aVrotateY
p606
aVrotateZ
p607
aaF0
aF0
aF0
aF-2.4582581259915321e-14
aF4.1507634667827833e-14
aF59.999999999999986
aa(lp608
S'index_finger_fk_ctrl_1_l'
p609
a(lp610
VtranslateX
p611
aVtranslateY
p612
aVtranslateZ
p613
aVrotateX
p614
aVrotateY
p615
aVrotateZ
p616
aVsticky
p617
aaF0
aF0
aF0
aF4.4742357245617792e-05
aF6.48092003715882e-05
aF45.000196841704771
aF0
aa(lp618
S'index_finger_fk_ctrl_1_r'
p619
a(lp620
VtranslateX
p621
aVtranslateY
p622
aVtranslateZ
p623
aVrotateX
p624
aVrotateY
p625
aVrotateZ
p626
aVsticky
p627
aaF0
aF0
aF0
aF-0.00010982398409227724
aF6.0452397522426194e-06
aF45.000421223938694
aF0
aa(lp628
S'index_finger_fk_ctrl_2_l'
p629
a(lp630
VtranslateX
p631
aVtranslateY
p632
aVtranslateZ
p633
aVrotateX
p634
aVrotateY
p635
aVrotateZ
p636
aaF0
aF0
aF0
aF-3.5041045651255198e-14
aF6.9196969451668528e-14
aF45.000000000000014
aa(lp637
S'index_finger_fk_ctrl_2_r'
p638
a(lp639
VtranslateX
p640
aVtranslateY
p641
aVtranslateZ
p642
aVrotateX
p643
aVrotateY
p644
aVrotateZ
p645
aaF0
aF0
aF0
aF-6.1967209611415562e-13
aF6.0913707086892855e-13
aF45
aa(lp646
S'index_finger_fk_ctrl_3_l'
p647
a(lp648
VtranslateX
p649
aVtranslateY
p650
aVtranslateZ
p651
aVrotateX
p652
aVrotateY
p653
aVrotateZ
p654
aaF0
aF0
aF0
aF-1.5942918278232404e-14
aF-7.532226470076979e-14
aF60.000000000000007
aa(lp655
S'index_finger_fk_ctrl_3_r'
p656
a(lp657
VtranslateX
p658
aVtranslateY
p659
aVtranslateZ
p660
aVrotateX
p661
aVrotateY
p662
aVrotateZ
p663
aaF0
aF0
aF0
aF-3.3319269442810266e-14
aF-2.8191144408691319e-14
aF59.999999999999943
aa(lp664
S'thumb_finger_fk_ctrl_1_l'
p665
a(lp666
VtranslateX
p667
aVtranslateY
p668
aVtranslateZ
p669
aVrotateX
p670
aVrotateY
p671
aVrotateZ
p672
aVsticky
p673
aaF0
aF0
aF0
aF4.829869496033135
aF5.5955898295194793
aF19.210790157201011
aF0
aa(lp674
S'thumb_finger_fk_ctrl_1_r'
p675
a(lp676
VtranslateX
p677
aVtranslateY
p678
aVtranslateZ
p679
aVrotateX
p680
aVrotateY
p681
aVrotateZ
p682
aVsticky
p683
aaF0
aF0
aF0
aF4.8297154261262216
aF5.5957074595926128
aF19.210975989193706
aF0
aa(lp684
S'thumb_finger_fk_ctrl_2_l'
p685
a(lp686
VtranslateX
p687
aVtranslateY
p688
aVtranslateZ
p689
aVrotateX
p690
aVrotateY
p691
aVrotateZ
p692
aaF0
aF0
aF0
aF1.2148146647226942e-15
aF10.947248458862305
aF25.212852478027362
aa(lp693
S'thumb_finger_fk_ctrl_2_r'
p694
a(lp695
VtranslateX
p696
aVtranslateY
p697
aVtranslateZ
p698
aVrotateX
p699
aVrotateY
p700
aVrotateZ
p701
aaF0
aF0
aF0
aF3.7621004879067187e-07
aF10.947248842143571
aF25.212852549471577
aa(lp702
S'thumb_finger_fk_ctrl_3_l'
p703
a(lp704
VtranslateX
p705
aVtranslateY
p706
aVtranslateZ
p707
aVrotateX
p708
aVrotateY
p709
aVrotateZ
p710
aaF0
aF0
aF0
aF1.1214402486990606e-14
aF1.8616231748716721e-14
aF44.238685607910156
aa(lp711
S'thumb_finger_fk_ctrl_3_r'
p712
a(lp713
VtranslateX
p714
aVtranslateY
p715
aVtranslateZ
p716
aVrotateX
p717
aVrotateY
p718
aVrotateZ
p719
aaF0
aF0
aF0
aF-2.9455140379445312e-07
aF-2.4810568866425758e-07
aF44.238685547149373
aa(lp720
S'index_l_ik_anim'
p721
a(lp722
VtranslateX
p723
aVtranslateY
p724
aVtranslateZ
p725
aVrotateX
p726
aVrotateY
p727
aVrotateZ
p728
aVpoleVectorVis
p729
aaF0
aF0
aF0
aF0
aF0
aF0
aF0
aa(lp730
S'index_r_ik_anim'
p731
a(lp732
VtranslateX
p733
aVtranslateY
p734
aVtranslateZ
p735
aVrotateX
p736
aVrotateY
p737
aVrotateZ
p738
aVpoleVectorVis
p739
aaF0
aF0
aF0
aF0
aF0
aF0
aF0
aa(lp740
S'middle_l_ik_anim'
p741
a(lp742
VtranslateX
p743
aVtranslateY
p744
aVtranslateZ
p745
aVrotateX
p746
aVrotateY
p747
aVrotateZ
p748
aVpoleVectorVis
p749
aaF0
aF0
aF0
aF0
aF0
aF0
aF0
aa(lp750
S'middle_r_ik_anim'
p751
a(lp752
VtranslateX
p753
aVtranslateY
p754
aVtranslateZ
p755
aVrotateX
p756
aVrotateY
p757
aVrotateZ
p758
aVpoleVectorVis
p759
aaF0
aF0
aF0
aF0
aF0
aF0
aF0
aa(lp760
S'ring_l_ik_anim'
p761
a(lp762
VtranslateX
p763
aVtranslateY
p764
aVtranslateZ
p765
aVrotateX
p766
aVrotateY
p767
aVrotateZ
p768
aVpoleVectorVis
p769
aaF0
aF0
aF0
aF0
aF0
aF0
aF0
aa(lp770
S'ring_r_ik_anim'
p771
a(lp772
VtranslateX
p773
aVtranslateY
p774
aVtranslateZ
p775
aVrotateX
p776
aVrotateY
p777
aVrotateZ
p778
aVpoleVectorVis
p779
aaF0
aF0
aF0
aF0
aF0
aF0
aF0
aa(lp780
S'pinky_l_ik_anim'
p781
a(lp782
VtranslateX
p783
aVtranslateY
p784
aVtranslateZ
p785
aVrotateX
p786
aVrotateY
p787
aVrotateZ
p788
aVpoleVectorVis
p789
aaF0
aF0
aF0
aF0
aF0
aF0
aF0
aa(lp790
S'pinky_r_ik_anim'
p791
a(lp792
VtranslateX
p793
aVtranslateY
p794
aVtranslateZ
p795
aVrotateX
p796
aVrotateY
p797
aVrotateZ
p798
aVpoleVectorVis
p799
aaF0
aF0
aF0
aF0
aF0
aF0
aF0
aa(lp800
S'thumb_l_ik_anim'
p801
a(lp802
VtranslateX
p803
aVtranslateY
p804
aVtranslateZ
p805
aVrotateX
p806
aVrotateY
p807
aVrotateZ
p808
aVpoleVectorVis
p809
aaF0
aF0
aF0
aF0
aF0
aF0
aF0
aa(lp810
S'thumb_r_ik_anim'
p811
a(lp812
VtranslateX
p813
aVtranslateY
p814
aVtranslateZ
p815
aVrotateX
p816
aVrotateY
p817
aVrotateZ
p818
aVpoleVectorVis
p819
aaF0
aF0
aF0
aF0
aF0
aF0
aF0
aa(lp820
S'index_l_poleVector'
p821
a(lp822
VtranslateX
p823
aVtranslateY
p824
aVtranslateZ
p825
aVrotateX
p826
aVrotateY
p827
aVrotateZ
p828
aaF0
aF0
aF0
aF0
aF0
aF0
aa(lp829
S'index_r_poleVector'
p830
a(lp831
VtranslateX
p832
aVtranslateY
p833
aVtranslateZ
p834
aVrotateX
p835
aVrotateY
p836
aVrotateZ
p837
aaF0
aF0
aF0
aF0
aF0
aF0
aa(lp838
S'middle_l_poleVector'
p839
a(lp840
VtranslateX
p841
aVtranslateY
p842
aVtranslateZ
p843
aVrotateX
p844
aVrotateY
p845
aVrotateZ
p846
aaF0
aF0
aF0
aF0
aF0
aF0
aa(lp847
S'middle_r_poleVector'
p848
a(lp849
VtranslateX
p850
aVtranslateY
p851
aVtranslateZ
p852
aVrotateX
p853
aVrotateY
p854
aVrotateZ
p855
aaF0
aF0
aF0
aF0
aF0
aF0
aa(lp856
S'ring_l_poleVector'
p857
a(lp858
VtranslateX
p859
aVtranslateY
p860
aVtranslateZ
p861
aVrotateX
p862
aVrotateY
p863
aVrotateZ
p864
aaF0
aF0
aF0
aF0
aF0
aF0
aa(lp865
S'ring_r_poleVector'
p866
a(lp867
VtranslateX
p868
aVtranslateY
p869
aVtranslateZ
p870
aVrotateX
p871
aVrotateY
p872
aVrotateZ
p873
aaF0
aF0
aF0
aF0
aF0
aF0
aa(lp874
S'pinky_l_poleVector'
p875
a(lp876
VtranslateX
p877
aVtranslateY
p878
aVtranslateZ
p879
aVrotateX
p880
aVrotateY
p881
aVrotateZ
p882
aaF0
aF0
aF0
aF0
aF0
aF0
aa(lp883
S'pinky_r_poleVector'
p884
a(lp885
VtranslateX
p886
aVtranslateY
p887
aVtranslateZ
p888
aVrotateX
p889
aVrotateY
p890
aVrotateZ
p891
aaF0
aF0
aF0
aF0
aF0
aF0
aa(lp892
S'thumb_l_poleVector'
p893
a(lp894
VtranslateX
p895
aVtranslateY
p896
aVtranslateZ
p897
aVrotateX
p898
aVrotateY
p899
aVrotateZ
p900
aaF0
aF0
aF0
aF0
aF0
aF0
aa(lp901
S'thumb_r_poleVector'
p902
a(lp903
VtranslateX
p904
aVtranslateY
p905
aVtranslateZ
p906
aVrotateX
p907
aVrotateY
p908
aVrotateZ
p909
aaF0
aF0
aF0
aF0
aF0
aF0
aa(lp910
S'l_global_ik_anim'
p911
a(lp912
VtranslateX
p913
aVtranslateY
p914
aVtranslateZ
p915
aVrotateX
p916
aVrotateY
p917
aVrotateZ
p918
aaF0
aF0
aF0
aF0
aF0
aF0
aa(lp919
S'r_global_ik_anim'
p920
a(lp921
VtranslateX
p922
aVtranslateY
p923
aVtranslateZ
p924
aVrotateX
p925
aVrotateY
p926
aVrotateZ
p927
aaF0
aF0
aF0
aF0
aF0
aF0
aa(lp928
S'Rig_Settings'
p929
a(lp930
Vspine_ik
p931
aVspine_fk
p932
aVlLegMode
p933
aVlThighTwistAmount
p934
aVllegTwistCtrlVis
p935
aVlCalfTwistAmount
p936
aVrLegMode
p937
aVrThighTwistAmount
p938
aVrlegTwistCtrlVis
p939
aVrCalfTwistAmount
p940
aVlFkArmOrient
p941
aVlArmMode
p942
aVlClavMode
p943
aVlUpperarmTwistAmount
p944
aVltwistCtrlVis
p945
aVltwistCtrlVisLower
p946
aVlForearmTwistAmount
p947
aVrFkArmOrient
p948
aVrArmMode
p949
aVrClavMode
p950
aVrUpperarmTwistAmount
p951
aVrtwistCtrlVis
p952
aVrtwistCtrlVisLower
p953
aVrForearmTwistAmount
p954
aaF1
aF0
aI1
aF1
aI00
aF0.5
aI1
aF1
aI00
aF0.5
aI0
aI1
aI1
aF0.90000000000000002
aI00
aI00
aF0.5
aI0
aI1
aI1
aF0.90000000000000002
aI00
aI00
aF0.5
aa(lp955
S'calf_l_twist_anim'
p956
a(lp957
VtranslateX
p958
aVtranslateY
p959
aVtranslateZ
p960
aVrotateX
p961
aVrotateY
p962
aVrotateZ
p963
aaF0
aF0
aF0
aF0
aF0
aF0
aa(lp964
S'calf_r_twist_anim'
p965
a(lp966
VtranslateX
p967
aVtranslateY
p968
aVtranslateZ
p969
aVrotateX
p970
aVrotateY
p971
aVrotateZ
p972
aaF0
aF0
aF0
aF0
aF0
aF0
aa(lp973
Vbody_anim_space_switcher
p974
a(lp975
Vvisibility
p976
aVtranslateX
p977
aVtranslateY
p978
aVtranslateZ
p979
aVrotateX
p980
aVrotateY
p981
aVrotateZ
p982
aVscaleX
p983
aVscaleY
p984
aVscaleZ
p985
aVspace_world
p986
aaI01
aF0
aF0
aF0
aF0
aF0
aF0
aF1
aF1
aF1
aF0
aa(lp987
Vchest_ik_anim_space_switcher
p988
a(lp989
Vvisibility
p990
aVtranslateX
p991
aVtranslateY
p992
aVtranslateZ
p993
aVrotateX
p994
aVrotateY
p995
aVrotateZ
p996
aVscaleX
p997
aVscaleY
p998
aVscaleZ
p999
aVspace_world
p1000
aVspace_chest_ik_world_aligned
p1001
aaI01
aF0
aF0
aF1.8932661725304283e-29
aF-7.0622500768802538e-31
aF-0
aF0
aF1
aF1
aF1
aF0
aF0
aa(lp1002
Vik_elbow_l_anim_space_switcher
p1003
a(lp1004
Vvisibility
p1005
aVtranslateX
p1006
aVtranslateY
p1007
aVtranslateZ
p1008
aVrotateX
p1009
aVrotateY
p1010
aVrotateZ
p1011
aVscaleX
p1012
aVscaleY
p1013
aVscaleZ
p1014
aVspace_world
p1015
aVspace_body_anim
p1016
aVspace_chest_ik_anim
p1017
aaI01
aF0
aF0
aF0
aF0
aF0
aF0
aF1
aF1
aF1
aF0
aF0
aF0
aa(lp1018
Vik_elbow_r_anim_space_switcher
p1019
a(lp1020
Vvisibility
p1021
aVtranslateX
p1022
aVtranslateY
p1023
aVtranslateZ
p1024
aVrotateX
p1025
aVrotateY
p1026
aVrotateZ
p1027
aVscaleX
p1028
aVscaleY
p1029
aVscaleZ
p1030
aVspace_world
p1031
aVspace_body_anim
p1032
aVspace_chest_ik_anim
p1033
aaI01
aF0
aF0
aF0
aF0
aF0
aF0
aF1
aF1
aF1
aF0
aF0
aF0
aa(lp1034
Vik_foot_anim_l_space_switcher
p1035
a(lp1036
Vvisibility
p1037
aVtranslateX
p1038
aVtranslateY
p1039
aVtranslateZ
p1040
aVrotateX
p1041
aVrotateY
p1042
aVrotateZ
p1043
aVscaleX
p1044
aVscaleY
p1045
aVscaleZ
p1046
aVspace_world
p1047
aVspace_body_anim
p1048
aaI01
aF0
aF0
aF0
aF0
aF0
aF0
aF1
aF1
aF1
aF0
aF0
aa(lp1049
Vik_foot_anim_r_space_switcher
p1050
a(lp1051
Vvisibility
p1052
aVtranslateX
p1053
aVtranslateY
p1054
aVtranslateZ
p1055
aVrotateX
p1056
aVrotateY
p1057
aVrotateZ
p1058
aVscaleX
p1059
aVscaleY
p1060
aVscaleZ
p1061
aVspace_world
p1062
aVspace_body_anim
p1063
aaI01
aF0
aF0
aF0
aF0
aF0
aF0
aF1
aF1
aF1
aF0
aF0
aa(lp1064
Vik_wrist_l_anim_space_switcher
p1065
a(lp1066
Vvisibility
p1067
aVtranslateX
p1068
aVtranslateY
p1069
aVtranslateZ
p1070
aVrotateX
p1071
aVrotateY
p1072
aVrotateZ
p1073
aVscaleX
p1074
aVscaleY
p1075
aVscaleZ
p1076
aVspace_world
p1077
aVspace_body_anim
p1078
aVspace_head_fk_anim
p1079
aVspace_chest_ik_anim
p1080
aaI01
aF0
aF0
aF0
aF0
aF0
aF0
aF1
aF1
aF1
aF0
aF0
aF0
aF0
aa(lp1081
Vik_wrist_r_anim_space_switcher
p1082
a(lp1083
Vvisibility
p1084
aVtranslateX
p1085
aVtranslateY
p1086
aVtranslateZ
p1087
aVrotateX
p1088
aVrotateY
p1089
aVrotateZ
p1090
aVscaleX
p1091
aVscaleY
p1092
aVscaleZ
p1093
aVspace_world
p1094
aVspace_body_anim
p1095
aVspace_head_fk_anim
p1096
aVspace_chest_ik_anim
p1097
aaI01
aF0
aF0
aF0
aF0
aF0
aF0
aF1
aF1
aF1
aF0
aF0
aF0
aF0
aa(lp1098
Vl_global_ik_anim_space_switcher
p1099
a(lp1100
Vvisibility
p1101
aVtranslateX
p1102
aVtranslateY
p1103
aVtranslateZ
p1104
aVrotateX
p1105
aVrotateY
p1106
aVrotateZ
p1107
aVscaleX
p1108
aVscaleY
p1109
aVscaleZ
p1110
aVspace_world
p1111
aaI01
aF0
aF0
aF0
aF0
aF0
aF0
aF1
aF1
aF1
aF0
aa(lp1112
Vmaster_anim_space_switcher
p1113
a(lp1114
Vvisibility
p1115
aVtranslateX
p1116
aVtranslateY
p1117
aVtranslateZ
p1118
aVrotateX
p1119
aVrotateY
p1120
aVrotateZ
p1121
aVscaleX
p1122
aVscaleY
p1123
aVscaleZ
p1124
aVspace_world
p1125
aaI01
aF0
aF0
aF0
aF0
aF0
aF0
aF1
aF1
aF1
aF0
aa(lp1126
Vr_global_ik_anim_space_switcher
p1127
a(lp1128
Vvisibility
p1129
aVtranslateX
p1130
aVtranslateY
p1131
aVtranslateZ
p1132
aVrotateX
p1133
aVrotateY
p1134
aVrotateZ
p1135
aVscaleX
p1136
aVscaleY
p1137
aVscaleZ
p1138
aVspace_world
p1139
aaI01
aF0
aF0
aF0
aF0
aF0
aF0
aF1
aF1
aF1
aF0
aa(lp1140
Vspine_01_space_switcher
p1141
a(lp1142
Vvisibility
p1143
aVtranslateX
p1144
aVtranslateY
p1145
aVtranslateZ
p1146
aVrotateX
p1147
aVrotateY
p1148
aVrotateZ
p1149
aVscaleX
p1150
aVscaleY
p1151
aVscaleZ
p1152
aVspace_world
p1153
aaI01
aF0
aF0
aF1.2621774483536189e-29
aF0
aF-5.649800061504203e-30
aF0
aF1
aF1
aF1
aF0
aa.