(lp1
(lp2
S'fk_clavicle_r_anim'
p3
a(lp4
VtranslateX
p5
aVtranslateY
p6
aVtranslateZ
p7
aVrotateX
p8
aVrotateY
p9
aVrotateZ
p10
aaF0
aF0
aF0
aF0
aF0
aF0
aa(lp11
S'fk_clavicle_l_anim'
p12
a(lp13
VtranslateX
p14
aVtranslateY
p15
aVtranslateZ
p16
aVrotateX
p17
aVrotateY
p18
aVrotateZ
p19
aaF0
aF0
aF0
aF0
aF0
aF0
aa(lp20
S'head_fk_anim'
p21
a(lp22
VtranslateX
p23
aVtranslateY
p24
aVtranslateZ
p25
aVrotateX
p26
aVrotateY
p27
aVrotateZ
p28
aVscaleX
p29
aVscaleY
p30
aVscaleZ
p31
aVfkOrientation
p32
aVblendOrient1
p33
aaF0
aF0
aF0
aF0
aF0
aF0
aF1
aF1
aF1
aI3
aF0
aa(lp34
S'neck_01_fk_anim'
p35
a(lp36
VtranslateX
p37
aVtranslateY
p38
aVtranslateZ
p39
aVrotateX
p40
aVrotateY
p41
aVrotateZ
p42
aVscaleX
p43
aVscaleY
p44
aVscaleZ
p45
aVfkOrientation
p46
aaF0
aF0
aF0
aF0
aF0
aF0
aF1
aF1
aF1
aI0
aa(lp47
S'spine_01_anim'
p48
a(lp49
Vlength
p50
aVtranslateY
p51
aVtranslateZ
p52
aVrotateX
p53
aVrotateY
p54
aVrotateZ
p55
aaF0
aF0
aF0
aF0
aF0
aF0
aa(lp56
S'spine_02_anim'
p57
a(lp58
Vlength
p59
aVtranslateY
p60
aVtranslateZ
p61
aVrotateX
p62
aVrotateY
p63
aVrotateZ
p64
aaF0
aF0
aF0
aF0
aF0
aF0
aa(lp65
S'spine_03_anim'
p66
a(lp67
Vlength
p68
aVtranslateY
p69
aVtranslateZ
p70
aVrotateX
p71
aVrotateY
p72
aVrotateZ
p73
aaF0
aF0
aF0
aF0
aF0
aF0
aa(lp74
S'mid_ik_anim'
p75
a(lp76
VtranslateX
p77
aVtranslateY
p78
aVtranslateZ
p79
aVrotateX
p80
aVrotateY
p81
aVrotateZ
p82
aaF0
aF0
aF0
aF0
aF0
aF0
aa(lp83
S'chest_ik_anim'
p84
a(lp85
VtranslateX
p86
aVtranslateY
p87
aVtranslateZ
p88
aVrotateX
p89
aVrotateY
p90
aVrotateZ
p91
aVstretch
p92
aVsquash
p93
aVtwist_amount
p94
aVautoSpine
p95
aVrotationInfluence
p96
aaF0
aF0
aF0
aF0
aF0
aF-28.950000211129705
aF0
aF0
aF1
aF0
aF0
aa(lp97
S'body_anim'
p98
a(lp99
VtranslateX
p100
aVtranslateY
p101
aVtranslateZ
p102
aVrotateX
p103
aVrotateY
p104
aVrotateZ
p105
aaF-20.530517763921022
aF5.6475900675515547
aF-4.5586907057961616e-15
aF-7.5368333902752793
aF2.0032626514964575
aF-14.799799676734391
aa(lp106
S'hip_anim'
p107
a(lp108
VtranslateX
p109
aVtranslateY
p110
aVtranslateZ
p111
aVrotateX
p112
aVrotateY
p113
aVrotateZ
p114
aVlCalfTwistCtrlVis
p115
aVrCalfTwistCtrlVis
p116
aVautoHips
p117
aaF0
aF0
aF0
aF0
aF0
aF0
aI00
aI00
aF0
aa(lp118
S'clavicle_l_anim'
p119
a(lp120
VtranslateX
p121
aVtranslateY
p122
aVtranslateZ
p123
aVautoShoulders
p124
aaF0
aF0
aF0
aF0
aa(lp125
S'clavicle_r_anim'
p126
a(lp127
VtranslateX
p128
aVtranslateY
p129
aVtranslateZ
p130
aVautoShoulders
p131
aaF0
aF0
aF0
aF0
aa(lp132
S'fk_arm_l_anim'
p133
a(lp134
VtranslateX
p135
aVtranslateY
p136
aVtranslateZ
p137
aVrotateX
p138
aVrotateY
p139
aVrotateZ
p140
aaF0
aF0
aF0
aF0
aF0
aF0
aa(lp141
S'fk_arm_r_anim'
p142
a(lp143
VtranslateX
p144
aVtranslateY
p145
aVtranslateZ
p146
aVrotateX
p147
aVrotateY
p148
aVrotateZ
p149
aaF0
aF0
aF0
aF0
aF0
aF0
aa(lp150
S'fk_elbow_l_anim'
p151
a(lp152
VtranslateX
p153
aVtranslateY
p154
aVtranslateZ
p155
aVrotateX
p156
aVrotateY
p157
aVrotateZ
p158
aaF0
aF0
aF0
aF0
aF0
aF0
aa(lp159
S'fk_elbow_r_anim'
p160
a(lp161
VtranslateX
p162
aVtranslateY
p163
aVtranslateZ
p164
aVrotateX
p165
aVrotateY
p166
aVrotateZ
p167
aaF0
aF0
aF0
aF0
aF0
aF0
aa(lp168
S'fk_wrist_l_anim'
p169
a(lp170
VtranslateX
p171
aVtranslateY
p172
aVtranslateZ
p173
aVrotateX
p174
aVrotateY
p175
aVrotateZ
p176
aaF0
aF0
aF0
aF0
aF0
aF0
aa(lp177
S'fk_wrist_r_anim'
p178
a(lp179
VtranslateX
p180
aVtranslateY
p181
aVtranslateZ
p182
aVrotateX
p183
aVrotateY
p184
aVrotateZ
p185
aaF0
aF0
aF0
aF0
aF0
aF0
aa(lp186
S'ik_elbow_l_anim'
p187
a(lp188
VtranslateX
p189
aVtranslateY
p190
aVtranslateZ
p191
aVblendPoint1
p192
aaF0
aF0
aF0
aF0
aa(lp193
S'ik_elbow_r_anim'
p194
a(lp195
VtranslateX
p196
aVtranslateY
p197
aVtranslateZ
p198
aVblendPoint1
p199
aaF0
aF0
aF0
aF0
aa(lp200
S'ik_wrist_l_anim'
p201
a(lp202
VtranslateX
p203
aVtranslateY
p204
aVtranslateZ
p205
aVrotateX
p206
aVrotateY
p207
aVrotateZ
p208
aVstretch
p209
aVsquash
p210
aVstretchBias
p211
aVside
p212
aVmid_bend
p213
aVmid_swivel
p214
aVtip_pivot
p215
aVtip_swivel
p216
aVblendParent1
p217
aaF-5.2709294186642
aF3.9705337938554237
aF-5.6153105854417724
aF0
aF0
aF0
aF0
aF0
aF0
aF0
aF0
aF0
aF0
aF0
aF0
aa(lp218
S'ik_wrist_r_anim'
p219
a(lp220
VtranslateX
p221
aVtranslateY
p222
aVtranslateZ
p223
aVrotateX
p224
aVrotateY
p225
aVrotateZ
p226
aVstretch
p227
aVsquash
p228
aVstretchBias
p229
aVside
p230
aVmid_bend
p231
aVmid_swivel
p232
aVtip_pivot
p233
aVtip_swivel
p234
aVblendParent1
p235
aaF9.6556524964646329
aF-4.443799639335456
aF-6.4367205991783409
aF0
aF0
aF0
aF0
aF0
aF0
aF0
aF0
aF0
aF0
aF0
aF0
aa(lp236
S'fk_thigh_l_anim'
p237
a(lp238
VrotateX
p239
aVrotateY
p240
aVrotateZ
p241
aaF0
aF0
aF0
aa(lp242
S'fk_thigh_r_anim'
p243
a(lp244
VrotateX
p245
aVrotateY
p246
aVrotateZ
p247
aaF0
aF0
aF0
aa(lp248
S'fk_calf_l_anim'
p249
a(lp250
VrotateX
p251
aVrotateY
p252
aVrotateZ
p253
aaF0
aF0
aF0
aa(lp254
S'fk_calf_r_anim'
p255
a(lp256
VrotateX
p257
aVrotateY
p258
aVrotateZ
p259
aaF0
aF0
aF0
aa(lp260
S'fk_foot_l_anim'
p261
a(lp262
VrotateX
p263
aVrotateY
p264
aVrotateZ
p265
aaF0
aF0
aF0
aa(lp266
S'fk_foot_r_anim'
p267
a(lp268
VrotateX
p269
aVrotateY
p270
aVrotateZ
p271
aaF0
aF0
aF0
aa(lp272
S'fk_ball_l_anim'
p273
a(lp274
VrotateX
p275
aVrotateY
p276
aVrotateZ
p277
aaF0
aF0
aF0
aa(lp278
S'fk_ball_r_anim'
p279
a(lp280
VrotateX
p281
aVrotateY
p282
aVrotateZ
p283
aaF0
aF0
aF0
aa(lp284
S'ik_foot_anim_l'
p285
a(lp286
VtranslateX
p287
aVtranslateY
p288
aVtranslateZ
p289
aVrotateX
p290
aVrotateY
p291
aVrotateZ
p292
aVknee_twist
p293
aVstretch
p294
aVsquash
p295
aVtoeCtrlVis
p296
aVstretchBias
p297
aaF0
aF-14.997794717368333
aF0
aF0
aF0
aF0
aF17.600000000000001
aF0
aF0
aI00
aF0
aa(lp298
S'ik_foot_anim_r'
p299
a(lp300
VtranslateX
p301
aVtranslateY
p302
aVtranslateZ
p303
aVrotateX
p304
aVrotateY
p305
aVrotateZ
p306
aVknee_twist
p307
aVstretch
p308
aVsquash
p309
aVtoeCtrlVis
p310
aVstretchBias
p311
aaF-8.6843726120508187
aF19.549870851310136
aF-1.7763568394002505e-15
aF0
aF0
aF-22.921427975488704
aF35.5
aF0
aF0
aI00
aF0
aa(lp312
S'heel_ctrl_l'
p313
a(lp314
VrotateX
p315
aVrotateY
p316
aVrotateZ
p317
aVheelPivot
p318
aVballPivot
p319
aaF0
aF0
aF0
aF0
aF0
aa(lp320
S'heel_ctrl_r'
p321
a(lp322
VrotateX
p323
aVrotateY
p324
aVrotateZ
p325
aVheelPivot
p326
aVballPivot
p327
aaF0
aF0
aF0
aF0
aF0
aa(lp328
S'toe_wiggle_ctrl_l'
p329
a(lp330
VrotateX
p331
aVrotateY
p332
aVrotateZ
p333
aaF0
aF0
aF0
aa(lp334
S'toe_wiggle_ctrl_r'
p335
a(lp336
VrotateX
p337
aVrotateY
p338
aVrotateZ
p339
aaF0
aF0
aF0
aa(lp340
S'toe_tip_ctrl_l'
p341
a(lp342
VrotateX
p343
aVrotateY
p344
aVrotateZ
p345
aaF0
aF0
aF0
aa(lp346
S'toe_tip_ctrl_r'
p347
a(lp348
VrotateX
p349
aVrotateY
p350
aVrotateZ
p351
aaF0
aF0
aF0
aa(lp352
S'master_anim'
p353
a(lp354
VtranslateX
p355
aVtranslateY
p356
aVtranslateZ
p357
aVrotateX
p358
aVrotateY
p359
aVrotateZ
p360
aaF0
aF0
aF0
aF0
aF0
aF0
aa(lp361
S'offset_anim'
p362
a(lp363
VtranslateX
p364
aVtranslateY
p365
aVtranslateZ
p366
aVrotateX
p367
aVrotateY
p368
aVrotateZ
p369
aaF0
aF0
aF0
aF0
aF0
aF0
aa(lp370
S'root_anim'
p371
a(lp372
VtranslateX
p373
aVtranslateY
p374
aVtranslateZ
p375
aVrotateX
p376
aVrotateY
p377
aVrotateZ
p378
aaF0
aF0
aF0
aF0
aF0
aF0
aa(lp379
S'upperarm_l_twist_anim'
p380
a(lp381
VtranslateX
p382
aVtranslateY
p383
aVtranslateZ
p384
aVrotateX
p385
aVrotateY
p386
aVrotateZ
p387
aVscaleX
p388
aVscaleY
p389
aVscaleZ
p390
aaF0
aF0
aF0
aF0
aF0
aF0
aF1
aF1
aF1
aa(lp391
S'upperarm_r_twist_anim'
p392
a(lp393
VtranslateX
p394
aVtranslateY
p395
aVtranslateZ
p396
aVrotateX
p397
aVrotateY
p398
aVrotateZ
p399
aVscaleX
p400
aVscaleY
p401
aVscaleZ
p402
aaF0
aF0
aF0
aF0
aF0
aF0
aF1
aF1
aF1
aa(lp403
S'lowerarm_l_twist_anim'
p404
a(lp405
VtranslateX
p406
aVtranslateY
p407
aVtranslateZ
p408
aVrotateX
p409
aVrotateY
p410
aVrotateZ
p411
aaF0
aF0
aF0
aF0
aF0
aF0
aa(lp412
S'lowerarm_r_twist_anim'
p413
a(lp414
VtranslateX
p415
aVtranslateY
p416
aVtranslateZ
p417
aVrotateX
p418
aVrotateY
p419
aVrotateZ
p420
aaF0
aF0
aF0
aF0
aF0
aF0
aa(lp421
S'l_thigh_twist_01_anim'
p422
a(lp423
VtranslateX
p424
aVtranslateY
p425
aVtranslateZ
p426
aVrotateX
p427
aVrotateY
p428
aVrotateZ
p429
aVscaleX
p430
aVscaleY
p431
aVscaleZ
p432
aaF0
aF0
aF0
aF0
aF0
aF0
aF1
aF1
aF1
aa(lp433
S'r_thigh_twist_01_anim'
p434
a(lp435
VtranslateX
p436
aVtranslateY
p437
aVtranslateZ
p438
aVrotateX
p439
aVrotateY
p440
aVrotateZ
p441
aVscaleX
p442
aVscaleY
p443
aVscaleZ
p444
aaF0
aF0
aF0
aF0
aF0
aF0
aF1
aF1
aF1
aa(lp445
S'pinky_finger_fk_ctrl_1_l'
p446
a(lp447
VtranslateX
p448
aVtranslateY
p449
aVtranslateZ
p450
aVrotateX
p451
aVrotateY
p452
aVrotateZ
p453
aVsticky
p454
aaF0
aF0
aF0
aF0
aF0
aF0
aF0
aa(lp455
S'pinky_finger_fk_ctrl_1_r'
p456
a(lp457
VtranslateX
p458
aVtranslateY
p459
aVtranslateZ
p460
aVrotateX
p461
aVrotateY
p462
aVrotateZ
p463
aVsticky
p464
aaF0
aF0
aF0
aF0
aF0
aF0
aF0
aa(lp465
S'pinky_finger_fk_ctrl_2_l'
p466
a(lp467
VtranslateX
p468
aVtranslateY
p469
aVtranslateZ
p470
aVrotateX
p471
aVrotateY
p472
aVrotateZ
p473
aaF0
aF0
aF0
aF0
aF0
aF0
aa(lp474
S'pinky_finger_fk_ctrl_2_r'
p475
a(lp476
VtranslateX
p477
aVtranslateY
p478
aVtranslateZ
p479
aVrotateX
p480
aVrotateY
p481
aVrotateZ
p482
aaF0
aF0
aF0
aF0
aF0
aF0
aa(lp483
S'pinky_finger_fk_ctrl_3_l'
p484
a(lp485
VtranslateX
p486
aVtranslateY
p487
aVtranslateZ
p488
aVrotateX
p489
aVrotateY
p490
aVrotateZ
p491
aaF0
aF0
aF0
aF0
aF0
aF0
aa(lp492
S'pinky_finger_fk_ctrl_3_r'
p493
a(lp494
VtranslateX
p495
aVtranslateY
p496
aVtranslateZ
p497
aVrotateX
p498
aVrotateY
p499
aVrotateZ
p500
aaF0
aF0
aF0
aF0
aF0
aF0
aa(lp501
S'ring_finger_fk_ctrl_1_l'
p502
a(lp503
VtranslateX
p504
aVtranslateY
p505
aVtranslateZ
p506
aVrotateX
p507
aVrotateY
p508
aVrotateZ
p509
aVsticky
p510
aaF0
aF0
aF0
aF0
aF0
aF0
aF0
aa(lp511
S'ring_finger_fk_ctrl_1_r'
p512
a(lp513
VtranslateX
p514
aVtranslateY
p515
aVtranslateZ
p516
aVrotateX
p517
aVrotateY
p518
aVrotateZ
p519
aVsticky
p520
aaF0
aF0
aF0
aF0
aF0
aF0
aF0
aa(lp521
S'ring_finger_fk_ctrl_2_l'
p522
a(lp523
VtranslateX
p524
aVtranslateY
p525
aVtranslateZ
p526
aVrotateX
p527
aVrotateY
p528
aVrotateZ
p529
aaF0
aF0
aF0
aF0
aF0
aF0
aa(lp530
S'ring_finger_fk_ctrl_2_r'
p531
a(lp532
VtranslateX
p533
aVtranslateY
p534
aVtranslateZ
p535
aVrotateX
p536
aVrotateY
p537
aVrotateZ
p538
aaF0
aF0
aF0
aF0
aF0
aF0
aa(lp539
S'ring_finger_fk_ctrl_3_l'
p540
a(lp541
VtranslateX
p542
aVtranslateY
p543
aVtranslateZ
p544
aVrotateX
p545
aVrotateY
p546
aVrotateZ
p547
aaF0
aF0
aF0
aF0
aF0
aF0
aa(lp548
S'ring_finger_fk_ctrl_3_r'
p549
a(lp550
VtranslateX
p551
aVtranslateY
p552
aVtranslateZ
p553
aVrotateX
p554
aVrotateY
p555
aVrotateZ
p556
aaF0
aF0
aF0
aF0
aF0
aF0
aa(lp557
S'middle_finger_fk_ctrl_1_l'
p558
a(lp559
VtranslateX
p560
aVtranslateY
p561
aVtranslateZ
p562
aVrotateX
p563
aVrotateY
p564
aVrotateZ
p565
aVsticky
p566
aaF0
aF0
aF0
aF0
aF0
aF0
aF0
aa(lp567
S'middle_finger_fk_ctrl_1_r'
p568
a(lp569
VtranslateX
p570
aVtranslateY
p571
aVtranslateZ
p572
aVrotateX
p573
aVrotateY
p574
aVrotateZ
p575
aVsticky
p576
aaF0
aF0
aF0
aF0
aF0
aF0
aF0
aa(lp577
S'middle_finger_fk_ctrl_2_l'
p578
a(lp579
VtranslateX
p580
aVtranslateY
p581
aVtranslateZ
p582
aVrotateX
p583
aVrotateY
p584
aVrotateZ
p585
aaF0
aF0
aF0
aF0
aF0
aF0
aa(lp586
S'middle_finger_fk_ctrl_2_r'
p587
a(lp588
VtranslateX
p589
aVtranslateY
p590
aVtranslateZ
p591
aVrotateX
p592
aVrotateY
p593
aVrotateZ
p594
aaF0
aF0
aF0
aF0
aF0
aF0
aa(lp595
S'middle_finger_fk_ctrl_3_l'
p596
a(lp597
VtranslateX
p598
aVtranslateY
p599
aVtranslateZ
p600
aVrotateX
p601
aVrotateY
p602
aVrotateZ
p603
aaF0
aF0
aF0
aF0
aF0
aF0
aa(lp604
S'middle_finger_fk_ctrl_3_r'
p605
a(lp606
VtranslateX
p607
aVtranslateY
p608
aVtranslateZ
p609
aVrotateX
p610
aVrotateY
p611
aVrotateZ
p612
aaF0
aF0
aF0
aF0
aF0
aF0
aa(lp613
S'index_finger_fk_ctrl_1_l'
p614
a(lp615
VtranslateX
p616
aVtranslateY
p617
aVtranslateZ
p618
aVrotateX
p619
aVrotateY
p620
aVrotateZ
p621
aVsticky
p622
aaF0
aF0
aF0
aF0
aF0
aF0
aF0
aa(lp623
S'index_finger_fk_ctrl_1_r'
p624
a(lp625
VtranslateX
p626
aVtranslateY
p627
aVtranslateZ
p628
aVrotateX
p629
aVrotateY
p630
aVrotateZ
p631
aVsticky
p632
aaF0
aF0
aF0
aF0
aF0
aF0
aF0
aa(lp633
S'index_finger_fk_ctrl_2_l'
p634
a(lp635
VtranslateX
p636
aVtranslateY
p637
aVtranslateZ
p638
aVrotateX
p639
aVrotateY
p640
aVrotateZ
p641
aaF0
aF0
aF0
aF0
aF0
aF0
aa(lp642
S'index_finger_fk_ctrl_2_r'
p643
a(lp644
VtranslateX
p645
aVtranslateY
p646
aVtranslateZ
p647
aVrotateX
p648
aVrotateY
p649
aVrotateZ
p650
aaF0
aF0
aF0
aF0
aF0
aF0
aa(lp651
S'index_finger_fk_ctrl_3_l'
p652
a(lp653
VtranslateX
p654
aVtranslateY
p655
aVtranslateZ
p656
aVrotateX
p657
aVrotateY
p658
aVrotateZ
p659
aaF0
aF0
aF0
aF0
aF0
aF0
aa(lp660
S'index_finger_fk_ctrl_3_r'
p661
a(lp662
VtranslateX
p663
aVtranslateY
p664
aVtranslateZ
p665
aVrotateX
p666
aVrotateY
p667
aVrotateZ
p668
aaF0
aF0
aF0
aF0
aF0
aF0
aa(lp669
S'thumb_finger_fk_ctrl_1_l'
p670
a(lp671
VtranslateX
p672
aVtranslateY
p673
aVtranslateZ
p674
aVrotateX
p675
aVrotateY
p676
aVrotateZ
p677
aVsticky
p678
aaF0
aF0
aF0
aF0
aF0
aF0
aF0
aa(lp679
S'thumb_finger_fk_ctrl_1_r'
p680
a(lp681
VtranslateX
p682
aVtranslateY
p683
aVtranslateZ
p684
aVrotateX
p685
aVrotateY
p686
aVrotateZ
p687
aVsticky
p688
aaF0
aF0
aF0
aF0
aF0
aF0
aF0
aa(lp689
S'thumb_finger_fk_ctrl_2_l'
p690
a(lp691
VtranslateX
p692
aVtranslateY
p693
aVtranslateZ
p694
aVrotateX
p695
aVrotateY
p696
aVrotateZ
p697
aaF0
aF0
aF0
aF0
aF0
aF0
aa(lp698
S'thumb_finger_fk_ctrl_2_r'
p699
a(lp700
VtranslateX
p701
aVtranslateY
p702
aVtranslateZ
p703
aVrotateX
p704
aVrotateY
p705
aVrotateZ
p706
aaF0
aF0
aF0
aF0
aF0
aF0
aa(lp707
S'thumb_finger_fk_ctrl_3_l'
p708
a(lp709
VtranslateX
p710
aVtranslateY
p711
aVtranslateZ
p712
aVrotateX
p713
aVrotateY
p714
aVrotateZ
p715
aaF0
aF0
aF0
aF0
aF0
aF0
aa(lp716
S'thumb_finger_fk_ctrl_3_r'
p717
a(lp718
VtranslateX
p719
aVtranslateY
p720
aVtranslateZ
p721
aVrotateX
p722
aVrotateY
p723
aVrotateZ
p724
aaF0
aF0
aF0
aF0
aF0
aF0
aa(lp725
S'index_l_ik_anim'
p726
a(lp727
VtranslateX
p728
aVtranslateY
p729
aVtranslateZ
p730
aVrotateX
p731
aVrotateY
p732
aVrotateZ
p733
aVpoleVectorVis
p734
aaF0
aF0
aF0
aF0
aF0
aF0
aF0
aa(lp735
S'index_r_ik_anim'
p736
a(lp737
VtranslateX
p738
aVtranslateY
p739
aVtranslateZ
p740
aVrotateX
p741
aVrotateY
p742
aVrotateZ
p743
aVpoleVectorVis
p744
aaF0
aF0
aF0
aF0
aF0
aF0
aF0
aa(lp745
S'middle_l_ik_anim'
p746
a(lp747
VtranslateX
p748
aVtranslateY
p749
aVtranslateZ
p750
aVrotateX
p751
aVrotateY
p752
aVrotateZ
p753
aVpoleVectorVis
p754
aaF0
aF0
aF0
aF0
aF0
aF0
aF0
aa(lp755
S'middle_r_ik_anim'
p756
a(lp757
VtranslateX
p758
aVtranslateY
p759
aVtranslateZ
p760
aVrotateX
p761
aVrotateY
p762
aVrotateZ
p763
aVpoleVectorVis
p764
aaF0
aF0
aF0
aF0
aF0
aF0
aF0
aa(lp765
S'ring_l_ik_anim'
p766
a(lp767
VtranslateX
p768
aVtranslateY
p769
aVtranslateZ
p770
aVrotateX
p771
aVrotateY
p772
aVrotateZ
p773
aVpoleVectorVis
p774
aaF0
aF0
aF0
aF0
aF0
aF0
aF0
aa(lp775
S'ring_r_ik_anim'
p776
a(lp777
VtranslateX
p778
aVtranslateY
p779
aVtranslateZ
p780
aVrotateX
p781
aVrotateY
p782
aVrotateZ
p783
aVpoleVectorVis
p784
aaF0
aF0
aF0
aF0
aF0
aF0
aF0
aa(lp785
S'pinky_l_ik_anim'
p786
a(lp787
VtranslateX
p788
aVtranslateY
p789
aVtranslateZ
p790
aVrotateX
p791
aVrotateY
p792
aVrotateZ
p793
aVpoleVectorVis
p794
aaF0
aF0
aF0
aF0
aF0
aF0
aF0
aa(lp795
S'pinky_r_ik_anim'
p796
a(lp797
VtranslateX
p798
aVtranslateY
p799
aVtranslateZ
p800
aVrotateX
p801
aVrotateY
p802
aVrotateZ
p803
aVpoleVectorVis
p804
aaF0
aF0
aF0
aF0
aF0
aF0
aF0
aa(lp805
S'thumb_l_ik_anim'
p806
a(lp807
VtranslateX
p808
aVtranslateY
p809
aVtranslateZ
p810
aVrotateX
p811
aVrotateY
p812
aVrotateZ
p813
aVpoleVectorVis
p814
aaF0
aF0
aF0
aF0
aF0
aF0
aF0
aa(lp815
S'thumb_r_ik_anim'
p816
a(lp817
VtranslateX
p818
aVtranslateY
p819
aVtranslateZ
p820
aVrotateX
p821
aVrotateY
p822
aVrotateZ
p823
aVpoleVectorVis
p824
aaF0
aF0
aF0
aF0
aF0
aF0
aF0
aa(lp825
S'index_l_poleVector'
p826
a(lp827
VtranslateX
p828
aVtranslateY
p829
aVtranslateZ
p830
aVrotateX
p831
aVrotateY
p832
aVrotateZ
p833
aaF0
aF0
aF0
aF0
aF0
aF0
aa(lp834
S'index_r_poleVector'
p835
a(lp836
VtranslateX
p837
aVtranslateY
p838
aVtranslateZ
p839
aVrotateX
p840
aVrotateY
p841
aVrotateZ
p842
aaF0
aF0
aF0
aF0
aF0
aF0
aa(lp843
S'middle_l_poleVector'
p844
a(lp845
VtranslateX
p846
aVtranslateY
p847
aVtranslateZ
p848
aVrotateX
p849
aVrotateY
p850
aVrotateZ
p851
aaF0
aF0
aF0
aF0
aF0
aF0
aa(lp852
S'middle_r_poleVector'
p853
a(lp854
VtranslateX
p855
aVtranslateY
p856
aVtranslateZ
p857
aVrotateX
p858
aVrotateY
p859
aVrotateZ
p860
aaF0
aF0
aF0
aF0
aF0
aF0
aa(lp861
S'ring_l_poleVector'
p862
a(lp863
VtranslateX
p864
aVtranslateY
p865
aVtranslateZ
p866
aVrotateX
p867
aVrotateY
p868
aVrotateZ
p869
aaF0
aF0
aF0
aF0
aF0
aF0
aa(lp870
S'ring_r_poleVector'
p871
a(lp872
VtranslateX
p873
aVtranslateY
p874
aVtranslateZ
p875
aVrotateX
p876
aVrotateY
p877
aVrotateZ
p878
aaF0
aF0
aF0
aF0
aF0
aF0
aa(lp879
S'pinky_l_poleVector'
p880
a(lp881
VtranslateX
p882
aVtranslateY
p883
aVtranslateZ
p884
aVrotateX
p885
aVrotateY
p886
aVrotateZ
p887
aaF0
aF0
aF0
aF0
aF0
aF0
aa(lp888
S'pinky_r_poleVector'
p889
a(lp890
VtranslateX
p891
aVtranslateY
p892
aVtranslateZ
p893
aVrotateX
p894
aVrotateY
p895
aVrotateZ
p896
aaF0
aF0
aF0
aF0
aF0
aF0
aa(lp897
S'thumb_l_poleVector'
p898
a(lp899
VtranslateX
p900
aVtranslateY
p901
aVtranslateZ
p902
aVrotateX
p903
aVrotateY
p904
aVrotateZ
p905
aaF0
aF0
aF0
aF0
aF0
aF0
aa(lp906
S'thumb_r_poleVector'
p907
a(lp908
VtranslateX
p909
aVtranslateY
p910
aVtranslateZ
p911
aVrotateX
p912
aVrotateY
p913
aVrotateZ
p914
aaF0
aF0
aF0
aF0
aF0
aF0
aa(lp915
S'l_global_ik_anim'
p916
a(lp917
VtranslateX
p918
aVtranslateY
p919
aVtranslateZ
p920
aVrotateX
p921
aVrotateY
p922
aVrotateZ
p923
aaF0
aF0
aF0
aF0
aF0
aF0
aa(lp924
S'r_global_ik_anim'
p925
a(lp926
VtranslateX
p927
aVtranslateY
p928
aVtranslateZ
p929
aVrotateX
p930
aVrotateY
p931
aVrotateZ
p932
aaF0
aF0
aF0
aF0
aF0
aF0
aa(lp933
S'Rig_Settings'
p934
a(lp935
Vspine_ik
p936
aVspine_fk
p937
aVlLegMode
p938
aVlThighTwistAmount
p939
aVllegTwistCtrlVis
p940
aVlCalfTwistAmount
p941
aVrLegMode
p942
aVrThighTwistAmount
p943
aVrlegTwistCtrlVis
p944
aVrCalfTwistAmount
p945
aVlFkArmOrient
p946
aVlArmMode
p947
aVlClavMode
p948
aVlUpperarmTwistAmount
p949
aVltwistCtrlVis
p950
aVltwistCtrlVisLower
p951
aVlForearmTwistAmount
p952
aVrFkArmOrient
p953
aVrArmMode
p954
aVrClavMode
p955
aVrUpperarmTwistAmount
p956
aVrtwistCtrlVis
p957
aVrtwistCtrlVisLower
p958
aVrForearmTwistAmount
p959
aaF1
aF0
aI1
aF1
aI00
aF0.5
aI1
aF1
aI00
aF0.5
aI0
aI1
aI1
aF0.90000000000000002
aI00
aI00
aF0.5
aI0
aI1
aI1
aF0.90000000000000002
aI00
aI00
aF0.5
aa(lp960
S'calf_l_twist_anim'
p961
a(lp962
VtranslateX
p963
aVtranslateY
p964
aVtranslateZ
p965
aVrotateX
p966
aVrotateY
p967
aVrotateZ
p968
aaF0
aF0
aF0
aF0
aF0
aF0
aa(lp969
S'calf_r_twist_anim'
p970
a(lp971
VtranslateX
p972
aVtranslateY
p973
aVtranslateZ
p974
aVrotateX
p975
aVrotateY
p976
aVrotateZ
p977
aaF0
aF0
aF0
aF0
aF0
aF0
aa(lp978
Vbody_anim_space_switcher
p979
a(lp980
Vvisibility
p981
aVtranslateX
p982
aVtranslateY
p983
aVtranslateZ
p984
aVrotateX
p985
aVrotateY
p986
aVrotateZ
p987
aVscaleX
p988
aVscaleY
p989
aVscaleZ
p990
aVspace_world
p991
aaI01
aF0
aF0
aF0
aF0
aF0
aF0
aF1
aF1
aF1
aF0
aa(lp992
Vchest_ik_anim_space_switcher
p993
a(lp994
Vvisibility
p995
aVtranslateX
p996
aVtranslateY
p997
aVtranslateZ
p998
aVrotateX
p999
aVrotateY
p1000
aVrotateZ
p1001
aVscaleX
p1002
aVscaleY
p1003
aVscaleZ
p1004
aVspace_world
p1005
aVspace_chest_ik_world_aligned
p1006
aaI01
aF0
aF0
aF1.8932661725304283e-29
aF-7.0622500768802538e-31
aF-0
aF0
aF1
aF1
aF1
aF0
aF0
aa(lp1007
Vik_elbow_l_anim_space_switcher
p1008
a(lp1009
Vvisibility
p1010
aVtranslateX
p1011
aVtranslateY
p1012
aVtranslateZ
p1013
aVrotateX
p1014
aVrotateY
p1015
aVrotateZ
p1016
aVscaleX
p1017
aVscaleY
p1018
aVscaleZ
p1019
aVspace_world
p1020
aVspace_body_anim
p1021
aVspace_chest_ik_anim
p1022
aaI01
aF0
aF0
aF0
aF0
aF0
aF0
aF1
aF1
aF1
aF0
aF0
aF1
aa(lp1023
Vik_elbow_r_anim_space_switcher
p1024
a(lp1025
Vvisibility
p1026
aVtranslateX
p1027
aVtranslateY
p1028
aVtranslateZ
p1029
aVrotateX
p1030
aVrotateY
p1031
aVrotateZ
p1032
aVscaleX
p1033
aVscaleY
p1034
aVscaleZ
p1035
aVspace_world
p1036
aVspace_body_anim
p1037
aVspace_chest_ik_anim
p1038
aaI01
aF0
aF0
aF0
aF0
aF0
aF0
aF1
aF1
aF1
aF0
aF0
aF1
aa(lp1039
Vik_foot_anim_l_space_switcher
p1040
a(lp1041
Vvisibility
p1042
aVtranslateX
p1043
aVtranslateY
p1044
aVtranslateZ
p1045
aVrotateX
p1046
aVrotateY
p1047
aVrotateZ
p1048
aVscaleX
p1049
aVscaleY
p1050
aVscaleZ
p1051
aVspace_world
p1052
aVspace_body_anim
p1053
aaI01
aF0
aF0
aF0
aF0
aF0
aF0
aF1
aF1
aF1
aF0
aF0
aa(lp1054
Vik_foot_anim_r_space_switcher
p1055
a(lp1056
Vvisibility
p1057
aVtranslateX
p1058
aVtranslateY
p1059
aVtranslateZ
p1060
aVrotateX
p1061
aVrotateY
p1062
aVrotateZ
p1063
aVscaleX
p1064
aVscaleY
p1065
aVscaleZ
p1066
aVspace_world
p1067
aVspace_body_anim
p1068
aaI01
aF0
aF0
aF0
aF0
aF0
aF0
aF1
aF1
aF1
aF0
aF0
aa(lp1069
Vik_wrist_l_anim_space_switcher
p1070
a(lp1071
Vvisibility
p1072
aVtranslateX
p1073
aVtranslateY
p1074
aVtranslateZ
p1075
aVrotateX
p1076
aVrotateY
p1077
aVrotateZ
p1078
aVscaleX
p1079
aVscaleY
p1080
aVscaleZ
p1081
aVspace_world
p1082
aVspace_body_anim
p1083
aVspace_head_fk_anim
p1084
aVspace_chest_ik_anim
p1085
aaI01
aF0
aF0
aF0
aF0
aF0
aF0
aF1
aF1
aF1
aF0
aF0
aF0
aF1
aa(lp1086
Vik_wrist_r_anim_space_switcher
p1087
a(lp1088
Vvisibility
p1089
aVtranslateX
p1090
aVtranslateY
p1091
aVtranslateZ
p1092
aVrotateX
p1093
aVrotateY
p1094
aVrotateZ
p1095
aVscaleX
p1096
aVscaleY
p1097
aVscaleZ
p1098
aVspace_world
p1099
aVspace_body_anim
p1100
aVspace_head_fk_anim
p1101
aVspace_chest_ik_anim
p1102
aaI01
aF0
aF0
aF0
aF0
aF0
aF0
aF1
aF1
aF1
aF0
aF0
aF0
aF1
aa(lp1103
Vl_global_ik_anim_space_switcher
p1104
a(lp1105
Vvisibility
p1106
aVtranslateX
p1107
aVtranslateY
p1108
aVtranslateZ
p1109
aVrotateX
p1110
aVrotateY
p1111
aVrotateZ
p1112
aVscaleX
p1113
aVscaleY
p1114
aVscaleZ
p1115
aVspace_world
p1116
aaI01
aF0
aF0
aF0
aF0
aF0
aF0
aF1
aF1
aF1
aF0
aa(lp1117
Vmaster_anim_space_switcher
p1118
a(lp1119
Vvisibility
p1120
aVtranslateX
p1121
aVtranslateY
p1122
aVtranslateZ
p1123
aVrotateX
p1124
aVrotateY
p1125
aVrotateZ
p1126
aVscaleX
p1127
aVscaleY
p1128
aVscaleZ
p1129
aVspace_world
p1130
aaI01
aF0
aF0
aF0
aF0
aF0
aF0
aF1
aF1
aF1
aF0
aa(lp1131
Vr_global_ik_anim_space_switcher
p1132
a(lp1133
Vvisibility
p1134
aVtranslateX
p1135
aVtranslateY
p1136
aVtranslateZ
p1137
aVrotateX
p1138
aVrotateY
p1139
aVrotateZ
p1140
aVscaleX
p1141
aVscaleY
p1142
aVscaleZ
p1143
aVspace_world
p1144
aaI01
aF0
aF0
aF0
aF0
aF0
aF0
aF1
aF1
aF1
aF0
aa(lp1145
Vspine_01_space_switcher
p1146
a(lp1147
Vvisibility
p1148
aVtranslateX
p1149
aVtranslateY
p1150
aVtranslateZ
p1151
aVrotateX
p1152
aVrotateY
p1153
aVrotateZ
p1154
aVscaleX
p1155
aVscaleY
p1156
aVscaleZ
p1157
aVspace_world
p1158
aaI01
aF0
aF0
aF1.2621774483536189e-29
aF0
aF-5.649800061504203e-30
aF0
aF1
aF1
aF1
aF0
aa.